
spede:     file format elf32-littlearm


Disassembly of section .text:

00100000 <__cs3_interrupt_vector>:
  100000:	e59ff018 	ldr	pc, [pc, #24]	; 100020 <__cs3_region_init_ram+0x20>
  100004:	e59ff018 	ldr	pc, [pc, #24]	; 100024 <__cs3_region_init_ram+0x24>
  100008:	e59ff018 	ldr	pc, [pc, #24]	; 100028 <__cs3_region_init_ram+0x28>
  10000c:	e59ff018 	ldr	pc, [pc, #24]	; 10002c <__cs3_region_init_ram+0x2c>
  100010:	e59ff018 	ldr	pc, [pc, #24]	; 100030 <__cs3_region_init_ram+0x30>
  100014:	e59ff018 	ldr	pc, [pc, #24]	; 100034 <__cs3_region_init_ram+0x34>
  100018:	e59ff018 	ldr	pc, [pc, #24]	; 100038 <__cs3_region_init_ram+0x38>
  10001c:	e59ff018 	ldr	pc, [pc, #24]	; 10003c <__cs3_region_init_ram+0x3c>
  100020:	00100040 	andseq	r0, r0, r0, asr #32
  100024:	00116c30 	andseq	r6, r1, r0, lsr ip
  100028:	00116c34 	andseq	r6, r1, r4, lsr ip
  10002c:	00116c38 	andseq	r6, r1, r8, lsr ip
  100030:	00116c3c 	andseq	r6, r1, ip, lsr ip
  100034:	00116c2c 	andseq	r6, r1, ip, lsr #24
  100038:	0010c7d4 			; <UNDEFINED> instruction: 0x0010c7d4
  10003c:	00116c40 	andseq	r6, r1, r0, asr #24

00100040 <__cs3_reset>:
  100040:	ea000022 	b	1000d0 <_start>

00100044 <__cs3_start_c>:
  100044:	e3008002 	movw	r8, #2
  100048:	e92d4080 	push	{r7, lr}
  10004c:	e3408000 	movt	r8, #0
  100050:	e3580000 	cmp	r8, #0
  100054:	0a00001c 	beq	1000cc <__cs3_start_c+0x88>
  100058:	e307e258 	movw	lr, #29272	; 0x7258
  10005c:	e2488001 	sub	r8, r8, #1
  100060:	e3a04000 	mov	r4, #0
  100064:	e3a05000 	mov	r5, #0
  100068:	e340e011 	movt	lr, #17
  10006c:	e99e1005 	ldmib	lr, {r0, r2, ip}
  100070:	e1500002 	cmp	r0, r2
  100074:	0082200c 	addeq	r2, r2, ip
  100078:	0a000007 	beq	10009c <__cs3_start_c+0x58>
  10007c:	e35c0000 	cmp	ip, #0
  100080:	0a000005 	beq	10009c <__cs3_start_c+0x58>
  100084:	e1a03000 	mov	r3, r0
  100088:	e0c360d8 	ldrd	r6, [r3], #8
  10008c:	e0601003 	rsb	r1, r0, r3
  100090:	e0c260f8 	strd	r6, [r2], #8
  100094:	e15c0001 	cmp	ip, r1
  100098:	1afffffa 	bne	100088 <__cs3_start_c+0x44>
  10009c:	e59e0010 	ldr	r0, [lr, #16]
  1000a0:	e3500000 	cmp	r0, #0
  1000a4:	11a03002 	movne	r3, r2
  1000a8:	0a000003 	beq	1000bc <__cs3_start_c+0x78>
  1000ac:	e0c340f8 	strd	r4, [r3], #8
  1000b0:	e0621003 	rsb	r1, r2, r3
  1000b4:	e1500001 	cmp	r0, r1
  1000b8:	1afffffb 	bne	1000ac <__cs3_start_c+0x68>
  1000bc:	e2488001 	sub	r8, r8, #1
  1000c0:	e28ee014 	add	lr, lr, #20
  1000c4:	e3780001 	cmn	r8, #1
  1000c8:	1affffe7 	bne	10006c <__cs3_start_c+0x28>
  1000cc:	eb0058c6 	bl	1163ec <__cs3_premain>

001000d0 <_start>:
  1000d0:	e51fd000 	ldr	sp, [pc, #-0]	; 1000d8 <_start+0x8>
  1000d4:	eaffffda 	b	100044 <__cs3_start_c>
  1000d8:	40000000 	andmi	r0, r0, r0

001000dc <deregister_tm_clones>:
  1000dc:	e59f3024 	ldr	r3, [pc, #36]	; 100108 <deregister_tm_clones+0x2c>
  1000e0:	e3070c58 	movw	r0, #31832	; 0x7c58
  1000e4:	e3400011 	movt	r0, #17
  1000e8:	e0603003 	rsb	r3, r0, r3
  1000ec:	e3530006 	cmp	r3, #6
  1000f0:	912fff1e 	bxls	lr
  1000f4:	e3003000 	movw	r3, #0
  1000f8:	e3403000 	movt	r3, #0
  1000fc:	e3530000 	cmp	r3, #0
  100100:	012fff1e 	bxeq	lr
  100104:	e12fff13 	bx	r3
  100108:	00117c5b 	andseq	r7, r1, fp, asr ip

0010010c <register_tm_clones>:
  10010c:	e3073c58 	movw	r3, #31832	; 0x7c58
  100110:	e3070c58 	movw	r0, #31832	; 0x7c58
  100114:	e3403011 	movt	r3, #17
  100118:	e3400011 	movt	r0, #17
  10011c:	e0601003 	rsb	r1, r0, r3
  100120:	e1a01141 	asr	r1, r1, #2
  100124:	e0811fa1 	add	r1, r1, r1, lsr #31
  100128:	e1b010c1 	asrs	r1, r1, #1
  10012c:	012fff1e 	bxeq	lr
  100130:	e3003000 	movw	r3, #0
  100134:	e3403000 	movt	r3, #0
  100138:	e3530000 	cmp	r3, #0
  10013c:	012fff1e 	bxeq	lr
  100140:	e12fff13 	bx	r3

00100144 <__do_global_dtors_aux>:
  100144:	e92d4010 	push	{r4, lr}
  100148:	e3074c60 	movw	r4, #31840	; 0x7c60
  10014c:	e3404011 	movt	r4, #17
  100150:	e5d43000 	ldrb	r3, [r4]
  100154:	e3530000 	cmp	r3, #0
  100158:	18bd8010 	popne	{r4, pc}
  10015c:	ebffffde 	bl	1000dc <deregister_tm_clones>
  100160:	e3003000 	movw	r3, #0
  100164:	e3403000 	movt	r3, #0
  100168:	e3530000 	cmp	r3, #0
  10016c:	0a000002 	beq	10017c <__do_global_dtors_aux+0x38>
  100170:	e3060cc8 	movw	r0, #27848	; 0x6cc8
  100174:	e3400011 	movt	r0, #17
  100178:	e320f000 	nop	{0}
  10017c:	e3a03001 	mov	r3, #1
  100180:	e5c43000 	strb	r3, [r4]
  100184:	e8bd8010 	pop	{r4, pc}

00100188 <frame_dummy>:
  100188:	e3003000 	movw	r3, #0
  10018c:	e92d4010 	push	{r4, lr}
  100190:	e3403000 	movt	r3, #0
  100194:	e3530000 	cmp	r3, #0
  100198:	0a000004 	beq	1001b0 <frame_dummy+0x28>
  10019c:	e3071c64 	movw	r1, #31844	; 0x7c64
  1001a0:	e3060cc8 	movw	r0, #27848	; 0x6cc8
  1001a4:	e3401011 	movt	r1, #17
  1001a8:	e3400011 	movt	r0, #17
  1001ac:	e320f000 	nop	{0}
  1001b0:	e3070280 	movw	r0, #29312	; 0x7280
  1001b4:	e3400011 	movt	r0, #17
  1001b8:	e5903000 	ldr	r3, [r0]
  1001bc:	e3530000 	cmp	r3, #0
  1001c0:	1a000001 	bne	1001cc <frame_dummy+0x44>
  1001c4:	e8bd4010 	pop	{r4, lr}
  1001c8:	eaffffcf 	b	10010c <register_tm_clones>
  1001cc:	e3003000 	movw	r3, #0
  1001d0:	e3403000 	movt	r3, #0
  1001d4:	e3530000 	cmp	r3, #0
  1001d8:	0afffff9 	beq	1001c4 <frame_dummy+0x3c>
  1001dc:	e12fff33 	blx	r3
  1001e0:	eafffff7 	b	1001c4 <frame_dummy+0x3c>

001001e4 <tie_periphbase_init>:
//  PERIPHBASE variable will contain the private memory region address
//  after function init_peripheral_base() is called.
//  For more info see http://infocenter.arm.com/help/index.jsp?topic=/com.arm.doc.ddi0407i/CACCJFCJ.html
unsigned int PERIPHBASE = 0;

void tie_periphbase_init(void){
  1001e4:	e52db004 	push	{fp}		; (str fp, [sp, #-4]!)
  1001e8:	e28db000 	add	fp, sp, #0
  1001ec:	e24dd00c 	sub	sp, sp, #12
    unsigned int base = 0;
  1001f0:	e3a03000 	mov	r3, #0
  1001f4:	e50b3008 	str	r3, [fp, #-8]
    __asm("MRC p15, 4, %0, c15, c0, 0" : "=r" (base));
  1001f8:	ee9f3f10 	mrc	15, 4, r3, cr15, cr0, {0}
  1001fc:	e50b3008 	str	r3, [fp, #-8]
    PERIPHBASE = base;
  100200:	e3073c88 	movw	r3, #31880	; 0x7c88
  100204:	e3403011 	movt	r3, #17
  100208:	e51b2008 	ldr	r2, [fp, #-8]
  10020c:	e5832000 	str	r2, [r3]
    // For more info, you may see
    //  http://infocenter.arm.com/help/index.jsp?topic=/com.arm.doc.dui0068b/CIHEEIDJ.html
    // and
    //  http://infocenter.arm.com/help/index.jsp?topic=/com.arm.doc.ddi0388i/CIHDHFBH.html
}
  100210:	e1a00000 	nop			; (mov r0, r0)
  100214:	e24bd000 	sub	sp, fp, #0
  100218:	e49db004 	pop	{fp}		; (ldr fp, [sp], #4)
  10021c:	e12fff1e 	bx	lr

00100220 <isr_callback>:
// This defines how the IRQ is triggered, either level or edge
// Set this value either ALT_INT_TRIGGER_LEVEL or ALT_INT_TRIGGER_EDGE
#define ISR_TRIGGER_TO ALT_INT_TRIGGER_LEVEL

// ISR callback
void isr_callback(uint32_t icciar, void* context){
  100220:	e92d4800 	push	{fp, lr}
  100224:	e28db004 	add	fp, sp, #4
  100228:	e24dd008 	sub	sp, sp, #8
  10022c:	e50b0008 	str	r0, [fp, #-8]
  100230:	e50b100c 	str	r1, [fp, #-12]

	++intCheck;
  100234:	e3073c84 	movw	r3, #31876	; 0x7c84
  100238:	e3403011 	movt	r3, #17
  10023c:	e5933000 	ldr	r3, [r3]
  100240:	e2832001 	add	r2, r3, #1
  100244:	e3073c84 	movw	r3, #31876	; 0x7c84
  100248:	e3403011 	movt	r3, #17
  10024c:	e5832000 	str	r2, [r3]
	randomLight();
  100250:	eb000009 	bl	10027c <randomLight>
	printf("interrupted %d time(s)\n", intCheck);
  100254:	e3073c84 	movw	r3, #31876	; 0x7c84
  100258:	e3403011 	movt	r3, #17
  10025c:	e5933000 	ldr	r3, [r3]
  100260:	e1a01003 	mov	r1, r3
  100264:	e3060cd8 	movw	r0, #27864	; 0x6cd8
  100268:	e3400011 	movt	r0, #17
  10026c:	eb003282 	bl	10cc7c <printf>
	// *timerInterrupt = 1;

}
  100270:	e1a00000 	nop			; (mov r0, r0)
  100274:	e24bd004 	sub	sp, fp, #4
  100278:	e8bd8800 	pop	{fp, pc}

0010027c <randomLight>:
// <<<<

void randomLight() {
  10027c:	e92d4800 	push	{fp, lr}
  100280:	e28db004 	add	fp, sp, #4
  100284:	e24dd008 	sub	sp, sp, #8
    unsigned int randNum = rand() % 4;
  100288:	eb0032d8 	bl	10cdf0 <rand>
  10028c:	e1a02000 	mov	r2, r0
  100290:	e1a03fc2 	asr	r3, r2, #31
  100294:	e1a03f23 	lsr	r3, r3, #30
  100298:	e0822003 	add	r2, r2, r3
  10029c:	e2022003 	and	r2, r2, #3
  1002a0:	e0633002 	rsb	r3, r3, r2
  1002a4:	e50b3008 	str	r3, [fp, #-8]
    // unsigned int current = *buttonW;
    switch (randNum) {
  1002a8:	e51b3008 	ldr	r3, [fp, #-8]
  1002ac:	e3530003 	cmp	r3, #3
  1002b0:	979ff103 	ldrls	pc, [pc, r3, lsl #2]
  1002b4:	ea00000f 	b	1002f8 <randomLight+0x7c>
  1002b8:	001002c8 	andseq	r0, r0, r8, asr #5
  1002bc:	001002d4 			; <UNDEFINED> instruction: 0x001002d4
  1002c0:	001002e0 	andseq	r0, r0, r0, ror #5
  1002c4:	001002ec 	andseq	r0, r0, ip, ror #5
    case 0:
        randNum = 1;
  1002c8:	e3a03001 	mov	r3, #1
  1002cc:	e50b3008 	str	r3, [fp, #-8]
        break;
  1002d0:	ea00000d 	b	10030c <randomLight+0x90>
    case 1:
    	randNum = 2;
  1002d4:	e3a03002 	mov	r3, #2
  1002d8:	e50b3008 	str	r3, [fp, #-8]
        break;
  1002dc:	ea00000a 	b	10030c <randomLight+0x90>
    case 2:
    	randNum = 4;
  1002e0:	e3a03004 	mov	r3, #4
  1002e4:	e50b3008 	str	r3, [fp, #-8]
        break;
  1002e8:	ea000007 	b	10030c <randomLight+0x90>
    case 3:
    	randNum = 8;
  1002ec:	e3a03008 	mov	r3, #8
  1002f0:	e50b3008 	str	r3, [fp, #-8]
        break;
  1002f4:	ea000004 	b	10030c <randomLight+0x90>
    default:
        randomLight();
  1002f8:	ebffffdf 	bl	10027c <randomLight>
        printf("defaulted\n");
  1002fc:	e3060cf0 	movw	r0, #27888	; 0x6cf0
  100300:	e3400011 	movt	r0, #17
  100304:	eb0032ac 	bl	10cdbc <puts>
        break;
  100308:	e1a00000 	nop			; (mov r0, r0)
    }

    if (randNum == *buttonW) {
  10030c:	e307328c 	movw	r3, #29324	; 0x728c
  100310:	e3403011 	movt	r3, #17
  100314:	e5933000 	ldr	r3, [r3]
  100318:	e5932000 	ldr	r2, [r3]
  10031c:	e51b3008 	ldr	r3, [fp, #-8]
  100320:	e1520003 	cmp	r2, r3
  100324:	1a000001 	bne	100330 <randomLight+0xb4>
    	randomLight();
  100328:	ebffffd3 	bl	10027c <randomLight>
    } else {
    	*buttonW = randNum;
    }
}
  10032c:	ea000004 	b	100344 <randomLight+0xc8>
    }

    if (randNum == *buttonW) {
    	randomLight();
    } else {
    	*buttonW = randNum;
  100330:	e307328c 	movw	r3, #29324	; 0x728c
  100334:	e3403011 	movt	r3, #17
  100338:	e5933000 	ldr	r3, [r3]
  10033c:	e51b2008 	ldr	r2, [fp, #-8]
  100340:	e5832000 	str	r2, [r3]
    }
}
  100344:	e1a00000 	nop			; (mov r0, r0)
  100348:	e24bd004 	sub	sp, fp, #4
  10034c:	e8bd8800 	pop	{fp, pc}

00100350 <checkButton>:

bool checkButton() {
  100350:	e52db004 	push	{fp}		; (str fp, [sp, #-4]!)
  100354:	e28db000 	add	fp, sp, #0
    return *button == *buttonW;
  100358:	e3073288 	movw	r3, #29320	; 0x7288
  10035c:	e3403011 	movt	r3, #17
  100360:	e5933000 	ldr	r3, [r3]
  100364:	e5932000 	ldr	r2, [r3]
  100368:	e307328c 	movw	r3, #29324	; 0x728c
  10036c:	e3403011 	movt	r3, #17
  100370:	e5933000 	ldr	r3, [r3]
  100374:	e5933000 	ldr	r3, [r3]
  100378:	e1520003 	cmp	r2, r3
  10037c:	03a03001 	moveq	r3, #1
  100380:	13a03000 	movne	r3, #0
  100384:	e6ef3073 	uxtb	r3, r3
}
  100388:	e1a00003 	mov	r0, r3
  10038c:	e24bd000 	sub	sp, fp, #0
  100390:	e49db004 	pop	{fp}		; (ldr fp, [sp], #4)
  100394:	e12fff1e 	bx	lr

00100398 <buttonRelease>:

void buttonRelease() {
  100398:	e52db004 	push	{fp}		; (str fp, [sp, #-4]!)
  10039c:	e28db000 	add	fp, sp, #0
    while (*button != 0) {
  1003a0:	e1a00000 	nop			; (mov r0, r0)
  1003a4:	e3073288 	movw	r3, #29320	; 0x7288
  1003a8:	e3403011 	movt	r3, #17
  1003ac:	e5933000 	ldr	r3, [r3]
  1003b0:	e5933000 	ldr	r3, [r3]
  1003b4:	e3530000 	cmp	r3, #0
  1003b8:	1afffff9 	bne	1003a4 <buttonRelease+0xc>

    }
}
  1003bc:	e1a00000 	nop			; (mov r0, r0)
  1003c0:	e24bd000 	sub	sp, fp, #0
  1003c4:	e49db004 	pop	{fp}		; (ldr fp, [sp], #4)
  1003c8:	e12fff1e 	bx	lr

001003cc <dispNumSupp>:

unsigned int dispNumSupp (unsigned int n, unsigned int order) {
  1003cc:	e52db004 	push	{fp}		; (str fp, [sp, #-4]!)
  1003d0:	e28db000 	add	fp, sp, #0
  1003d4:	e24dd014 	sub	sp, sp, #20
  1003d8:	e50b0010 	str	r0, [fp, #-16]
  1003dc:	e50b1014 	str	r1, [fp, #-20]	; 0xffffffec
    unsigned int output = 0;
  1003e0:	e3a03000 	mov	r3, #0
  1003e4:	e50b3008 	str	r3, [fp, #-8]
    switch (order) {
  1003e8:	e51b3014 	ldr	r3, [fp, #-20]	; 0xffffffec
  1003ec:	e3530003 	cmp	r3, #3
  1003f0:	979ff103 	ldrls	pc, [pc, r3, lsl #2]
  1003f4:	ea00005e 	b	100574 <dispNumSupp+0x1a8>
  1003f8:	00100408 	andseq	r0, r0, r8, lsl #8
  1003fc:	00100434 	andseq	r0, r0, r4, lsr r4
  100400:	001004a4 	andseq	r0, r0, r4, lsr #9
  100404:	00100520 	andseq	r0, r0, r0, lsr #10
    case 0:
        output = n % 10;
  100408:	e51b1010 	ldr	r1, [fp, #-16]
  10040c:	e30c3ccd 	movw	r3, #52429	; 0xcccd
  100410:	e34c3ccc 	movt	r3, #52428	; 0xcccc
  100414:	e0832391 	umull	r2, r3, r1, r3
  100418:	e1a031a3 	lsr	r3, r3, #3
  10041c:	e1a03083 	lsl	r3, r3, #1
  100420:	e1a02103 	lsl	r2, r3, #2
  100424:	e0833002 	add	r3, r3, r2
  100428:	e0633001 	rsb	r3, r3, r1
  10042c:	e50b3008 	str	r3, [fp, #-8]
        break;
  100430:	ea00004f 	b	100574 <dispNumSupp+0x1a8>
    case 1:
        output = ((n % 100) - (n % 10)) / 10;
  100434:	e51b1010 	ldr	r1, [fp, #-16]
  100438:	e308351f 	movw	r3, #34079	; 0x851f
  10043c:	e34531eb 	movt	r3, #20971	; 0x51eb
  100440:	e0832391 	umull	r2, r3, r1, r3
  100444:	e1a022a3 	lsr	r2, r3, #5
  100448:	e1a03002 	mov	r3, r2
  10044c:	e1a03103 	lsl	r3, r3, #2
  100450:	e1a02103 	lsl	r2, r3, #2
  100454:	e0833002 	add	r3, r3, r2
  100458:	e1a02103 	lsl	r2, r3, #2
  10045c:	e0833002 	add	r3, r3, r2
  100460:	e0632001 	rsb	r2, r3, r1
  100464:	e51bc010 	ldr	ip, [fp, #-16]
  100468:	e30c3ccd 	movw	r3, #52429	; 0xcccd
  10046c:	e34c3ccc 	movt	r3, #52428	; 0xcccc
  100470:	e081039c 	umull	r0, r1, ip, r3
  100474:	e1a031a1 	lsr	r3, r1, #3
  100478:	e1a03083 	lsl	r3, r3, #1
  10047c:	e1a01103 	lsl	r1, r3, #2
  100480:	e0833001 	add	r3, r3, r1
  100484:	e063300c 	rsb	r3, r3, ip
  100488:	e0632002 	rsb	r2, r3, r2
  10048c:	e30c3ccd 	movw	r3, #52429	; 0xcccd
  100490:	e34c3ccc 	movt	r3, #52428	; 0xcccc
  100494:	e0832392 	umull	r2, r3, r2, r3
  100498:	e1a031a3 	lsr	r3, r3, #3
  10049c:	e50b3008 	str	r3, [fp, #-8]
        break;
  1004a0:	ea000033 	b	100574 <dispNumSupp+0x1a8>
    case 2:
        output = ((n % 1000) - (n % 100)) / 100;
  1004a4:	e51b0010 	ldr	r0, [fp, #-16]
  1004a8:	e3043dd3 	movw	r3, #19923	; 0x4dd3
  1004ac:	e3413062 	movt	r3, #4194	; 0x1062
  1004b0:	e0832390 	umull	r2, r3, r0, r3
  1004b4:	e1a02323 	lsr	r2, r3, #6
  1004b8:	e1a01002 	mov	r1, r2
  1004bc:	e1a03101 	lsl	r3, r1, #2
  1004c0:	e1a01003 	mov	r1, r3
  1004c4:	e1a03281 	lsl	r3, r1, #5
  1004c8:	e0613003 	rsb	r3, r1, r3
  1004cc:	e0833002 	add	r3, r3, r2
  1004d0:	e1a03183 	lsl	r3, r3, #3
  1004d4:	e0632000 	rsb	r2, r3, r0
  1004d8:	e51bc010 	ldr	ip, [fp, #-16]
  1004dc:	e308351f 	movw	r3, #34079	; 0x851f
  1004e0:	e34531eb 	movt	r3, #20971	; 0x51eb
  1004e4:	e081039c 	umull	r0, r1, ip, r3
  1004e8:	e1a032a1 	lsr	r3, r1, #5
  1004ec:	e1a03103 	lsl	r3, r3, #2
  1004f0:	e1a01103 	lsl	r1, r3, #2
  1004f4:	e0833001 	add	r3, r3, r1
  1004f8:	e1a01103 	lsl	r1, r3, #2
  1004fc:	e0833001 	add	r3, r3, r1
  100500:	e063300c 	rsb	r3, r3, ip
  100504:	e0632002 	rsb	r2, r3, r2
  100508:	e308351f 	movw	r3, #34079	; 0x851f
  10050c:	e34531eb 	movt	r3, #20971	; 0x51eb
  100510:	e0832392 	umull	r2, r3, r2, r3
  100514:	e1a032a3 	lsr	r3, r3, #5
  100518:	e50b3008 	str	r3, [fp, #-8]
        break;
  10051c:	ea000014 	b	100574 <dispNumSupp+0x1a8>
    case 3:
        output = (n - (n % 1000)) / 1000;
  100520:	e51b0010 	ldr	r0, [fp, #-16]
  100524:	e3043dd3 	movw	r3, #19923	; 0x4dd3
  100528:	e3413062 	movt	r3, #4194	; 0x1062
  10052c:	e0832390 	umull	r2, r3, r0, r3
  100530:	e1a02323 	lsr	r2, r3, #6
  100534:	e1a01002 	mov	r1, r2
  100538:	e1a03101 	lsl	r3, r1, #2
  10053c:	e1a01003 	mov	r1, r3
  100540:	e1a03281 	lsl	r3, r1, #5
  100544:	e0613003 	rsb	r3, r1, r3
  100548:	e0833002 	add	r3, r3, r2
  10054c:	e1a03183 	lsl	r3, r3, #3
  100550:	e0632000 	rsb	r2, r3, r0
  100554:	e51b3010 	ldr	r3, [fp, #-16]
  100558:	e0622003 	rsb	r2, r2, r3
  10055c:	e3043dd3 	movw	r3, #19923	; 0x4dd3
  100560:	e3413062 	movt	r3, #4194	; 0x1062
  100564:	e0832392 	umull	r2, r3, r2, r3
  100568:	e1a03323 	lsr	r3, r3, #6
  10056c:	e50b3008 	str	r3, [fp, #-8]
        break;
  100570:	e1a00000 	nop			; (mov r0, r0)
    }
    return output;
  100574:	e51b3008 	ldr	r3, [fp, #-8]
}
  100578:	e1a00003 	mov	r0, r3
  10057c:	e24bd000 	sub	sp, fp, #0
  100580:	e49db004 	pop	{fp}		; (ldr fp, [sp], #4)
  100584:	e12fff1e 	bx	lr

00100588 <dispNum>:

uint32_t dispNum(unsigned int n) {
  100588:	e52db004 	push	{fp}		; (str fp, [sp, #-4]!)
  10058c:	e28db000 	add	fp, sp, #0
  100590:	e24dd014 	sub	sp, sp, #20
  100594:	e50b0010 	str	r0, [fp, #-16]
    uint32_t output = 63;
  100598:	e3a0303f 	mov	r3, #63	; 0x3f
  10059c:	e50b3008 	str	r3, [fp, #-8]
    switch (n) {
  1005a0:	e51b3010 	ldr	r3, [fp, #-16]
  1005a4:	e3530009 	cmp	r3, #9
  1005a8:	979ff103 	ldrls	pc, [pc, r3, lsl #2]
  1005ac:	ea000027 	b	100650 <dispNum+0xc8>
  1005b0:	001005d8 			; <UNDEFINED> instruction: 0x001005d8
  1005b4:	001005e4 	andseq	r0, r0, r4, ror #11
  1005b8:	001005f0 			; <UNDEFINED> instruction: 0x001005f0
  1005bc:	001005fc 			; <UNDEFINED> instruction: 0x001005fc
  1005c0:	00100608 	andseq	r0, r0, r8, lsl #12
  1005c4:	00100614 	andseq	r0, r0, r4, lsl r6
  1005c8:	00100620 	andseq	r0, r0, r0, lsr #12
  1005cc:	0010062c 	andseq	r0, r0, ip, lsr #12
  1005d0:	00100638 	andseq	r0, r0, r8, lsr r6
  1005d4:	00100644 	andseq	r0, r0, r4, asr #12
    case 0:
        output = 63;
  1005d8:	e3a0303f 	mov	r3, #63	; 0x3f
  1005dc:	e50b3008 	str	r3, [fp, #-8]
        break;
  1005e0:	ea00001a 	b	100650 <dispNum+0xc8>
    case 1:
        output = 6;
  1005e4:	e3a03006 	mov	r3, #6
  1005e8:	e50b3008 	str	r3, [fp, #-8]
        break;
  1005ec:	ea000017 	b	100650 <dispNum+0xc8>
    case 2:
        output = 91;
  1005f0:	e3a0305b 	mov	r3, #91	; 0x5b
  1005f4:	e50b3008 	str	r3, [fp, #-8]
        break;
  1005f8:	ea000014 	b	100650 <dispNum+0xc8>
    case 3:
        output = 79;
  1005fc:	e3a0304f 	mov	r3, #79	; 0x4f
  100600:	e50b3008 	str	r3, [fp, #-8]
        break;
  100604:	ea000011 	b	100650 <dispNum+0xc8>
    case 4:
        output = 102;
  100608:	e3a03066 	mov	r3, #102	; 0x66
  10060c:	e50b3008 	str	r3, [fp, #-8]
        break;
  100610:	ea00000e 	b	100650 <dispNum+0xc8>
    case 5:
        output = 109;
  100614:	e3a0306d 	mov	r3, #109	; 0x6d
  100618:	e50b3008 	str	r3, [fp, #-8]
        break;
  10061c:	ea00000b 	b	100650 <dispNum+0xc8>
    case 6:
        output = 125;
  100620:	e3a0307d 	mov	r3, #125	; 0x7d
  100624:	e50b3008 	str	r3, [fp, #-8]
        break;
  100628:	ea000008 	b	100650 <dispNum+0xc8>
    case 7:
        output = 7;
  10062c:	e3a03007 	mov	r3, #7
  100630:	e50b3008 	str	r3, [fp, #-8]
        break;
  100634:	ea000005 	b	100650 <dispNum+0xc8>
    case 8:
        output = 127;
  100638:	e3a0307f 	mov	r3, #127	; 0x7f
  10063c:	e50b3008 	str	r3, [fp, #-8]
        break;
  100640:	ea000002 	b	100650 <dispNum+0xc8>
    case 9:
        output = 111;
  100644:	e3a0306f 	mov	r3, #111	; 0x6f
  100648:	e50b3008 	str	r3, [fp, #-8]
        break;
  10064c:	e1a00000 	nop			; (mov r0, r0)
    }
    return output;
  100650:	e51b3008 	ldr	r3, [fp, #-8]
}
  100654:	e1a00003 	mov	r0, r3
  100658:	e24bd000 	sub	sp, fp, #0
  10065c:	e49db004 	pop	{fp}		; (ldr fp, [sp], #4)
  100660:	e12fff1e 	bx	lr

00100664 <updateDisplay>:

void updateDisplay (unsigned int n) {
  100664:	e92d4810 	push	{r4, fp, lr}
  100668:	e28db008 	add	fp, sp, #8
  10066c:	e24dd00c 	sub	sp, sp, #12
  100670:	e50b0010 	str	r0, [fp, #-16]

    *segDispVal1 = dispNum (dispNumSupp (n, 0));
  100674:	e307329c 	movw	r3, #29340	; 0x729c
  100678:	e3403011 	movt	r3, #17
  10067c:	e5934000 	ldr	r4, [r3]
  100680:	e3a01000 	mov	r1, #0
  100684:	e51b0010 	ldr	r0, [fp, #-16]
  100688:	ebffff4f 	bl	1003cc <dispNumSupp>
  10068c:	e1a03000 	mov	r3, r0
  100690:	e1a00003 	mov	r0, r3
  100694:	ebffffbb 	bl	100588 <dispNum>
  100698:	e1a03000 	mov	r3, r0
  10069c:	e5843000 	str	r3, [r4]
    *segDispVal2 = dispNum (dispNumSupp (n, 1));
  1006a0:	e3073298 	movw	r3, #29336	; 0x7298
  1006a4:	e3403011 	movt	r3, #17
  1006a8:	e5934000 	ldr	r4, [r3]
  1006ac:	e3a01001 	mov	r1, #1
  1006b0:	e51b0010 	ldr	r0, [fp, #-16]
  1006b4:	ebffff44 	bl	1003cc <dispNumSupp>
  1006b8:	e1a03000 	mov	r3, r0
  1006bc:	e1a00003 	mov	r0, r3
  1006c0:	ebffffb0 	bl	100588 <dispNum>
  1006c4:	e1a03000 	mov	r3, r0
  1006c8:	e5843000 	str	r3, [r4]
    *segDispVal3 = dispNum (dispNumSupp (n, 2));
  1006cc:	e3073294 	movw	r3, #29332	; 0x7294
  1006d0:	e3403011 	movt	r3, #17
  1006d4:	e5934000 	ldr	r4, [r3]
  1006d8:	e3a01002 	mov	r1, #2
  1006dc:	e51b0010 	ldr	r0, [fp, #-16]
  1006e0:	ebffff39 	bl	1003cc <dispNumSupp>
  1006e4:	e1a03000 	mov	r3, r0
  1006e8:	e1a00003 	mov	r0, r3
  1006ec:	ebffffa5 	bl	100588 <dispNum>
  1006f0:	e1a03000 	mov	r3, r0
  1006f4:	e5843000 	str	r3, [r4]
    *segDispVal4 = dispNum (dispNumSupp (n, 3));
  1006f8:	e3073290 	movw	r3, #29328	; 0x7290
  1006fc:	e3403011 	movt	r3, #17
  100700:	e5934000 	ldr	r4, [r3]
  100704:	e3a01003 	mov	r1, #3
  100708:	e51b0010 	ldr	r0, [fp, #-16]
  10070c:	ebffff2e 	bl	1003cc <dispNumSupp>
  100710:	e1a03000 	mov	r3, r0
  100714:	e1a00003 	mov	r0, r3
  100718:	ebffff9a 	bl	100588 <dispNum>
  10071c:	e1a03000 	mov	r3, r0
  100720:	e5843000 	str	r3, [r4]

}
  100724:	e1a00000 	nop			; (mov r0, r0)
  100728:	e24bd008 	sub	sp, fp, #8
  10072c:	e8bd8810 	pop	{r4, fp, pc}

00100730 <gameUpdate>:

void gameUpdate() {
  100730:	e92d4800 	push	{fp, lr}
  100734:	e28db004 	add	fp, sp, #4
    if (checkButton()) {
  100738:	ebffff04 	bl	100350 <checkButton>
  10073c:	e1a03000 	mov	r3, r0
  100740:	e3530000 	cmp	r3, #0
  100744:	0a00000c 	beq	10077c <gameUpdate+0x4c>
        ++score;
  100748:	e3073c80 	movw	r3, #31872	; 0x7c80
  10074c:	e3403011 	movt	r3, #17
  100750:	e5933000 	ldr	r3, [r3]
  100754:	e2832001 	add	r2, r3, #1
  100758:	e3073c80 	movw	r3, #31872	; 0x7c80
  10075c:	e3403011 	movt	r3, #17
  100760:	e5832000 	str	r2, [r3]
        updateDisplay(score);
  100764:	e3073c80 	movw	r3, #31872	; 0x7c80
  100768:	e3403011 	movt	r3, #17
  10076c:	e5933000 	ldr	r3, [r3]
  100770:	e1a00003 	mov	r0, r3
  100774:	ebffffba 	bl	100664 <updateDisplay>
        --lives;
        if (lives == 0) {
            // end game here.
        }
    }
}
  100778:	ea000006 	b	100798 <gameUpdate+0x68>
void gameUpdate() {
    if (checkButton()) {
        ++score;
        updateDisplay(score);
    } else {
        --lives;
  10077c:	e30732ac 	movw	r3, #29356	; 0x72ac
  100780:	e3403011 	movt	r3, #17
  100784:	e5933000 	ldr	r3, [r3]
  100788:	e2432001 	sub	r2, r3, #1
  10078c:	e30732ac 	movw	r3, #29356	; 0x72ac
  100790:	e3403011 	movt	r3, #17
  100794:	e5832000 	str	r2, [r3]
        if (lives == 0) {
            // end game here.
        }
    }
}
  100798:	e1a00000 	nop			; (mov r0, r0)
  10079c:	e8bd8800 	pop	{fp, pc}

001007a0 <main>:

int main(int argc, char** argv)
{
  1007a0:	e92d4800 	push	{fp, lr}
  1007a4:	e28db004 	add	fp, sp, #4
  1007a8:	e24dd008 	sub	sp, sp, #8
  1007ac:	e50b0008 	str	r0, [fp, #-8]
  1007b0:	e50b100c 	str	r1, [fp, #-12]

    // ------------------------------------------------------
    // STUDENTS NOTE: Do not touch on the following lines >>>
    alt_int_global_init();
  1007b4:	eb0029d9 	bl	10af20 <alt_int_global_init>
    alt_int_cpu_init();
  1007b8:	eb002e4f 	bl	10c0fc <alt_int_cpu_init>
    alt_int_cpu_enable();
  1007bc:	eb002e83 	bl	10c1d0 <alt_int_cpu_enable>
    alt_int_global_enable();
  1007c0:	eb002a67 	bl	10b164 <alt_int_global_enable>
    tie_periphbase_init();
  1007c4:	ebfffe86 	bl	1001e4 <tie_periphbase_init>
    tie_ui_connection_init();
  1007c8:	eb000097 	bl	100a2c <tie_ui_connection_init>
    // <<<<
    // ------------------------------------------------------

    unsigned int temp;

    srand(time(NULL));
  1007cc:	e3a00000 	mov	r0, #0
  1007d0:	eb0031d1 	bl	10cf1c <time>
  1007d4:	e1a03000 	mov	r3, r0
  1007d8:	e1a00003 	mov	r0, r3
  1007dc:	eb00317c 	bl	10cdd4 <srand>
    //	unsigned int randnum = rand() % 10000;


    // STUDENT NOTE: uncomment these, when you are ready to take interrupt in to use
    // >>>>
    alt_int_isr_register(ISR_ID, &isr_callback, 0);
  1007e0:	e3a02000 	mov	r2, #0
  1007e4:	e3001220 	movw	r1, #544	; 0x220
  1007e8:	e3401010 	movt	r1, #16
  1007ec:	e3a0001d 	mov	r0, #29
  1007f0:	eb002faf 	bl	10c6b4 <alt_int_isr_register>
    alt_int_dist_trigger_set(ISR_ID, ISR_TRIGGER_TO);
  1007f4:	e3a01001 	mov	r1, #1
  1007f8:	e3a0001d 	mov	r0, #29
  1007fc:	eb002d57 	bl	10bd60 <alt_int_dist_trigger_set>
    alt_int_dist_target_set(ISR_ID, alt_int_util_cpu_current());
  100800:	eb002feb 	bl	10c7b4 <alt_int_util_cpu_current>
  100804:	e1a03000 	mov	r3, r0
  100808:	e1a01003 	mov	r1, r3
  10080c:	e3a0001d 	mov	r0, #29
  100810:	eb002cda 	bl	10bb80 <alt_int_dist_target_set>
    alt_int_dist_enable(ISR_ID);
  100814:	e3a0001d 	mov	r0, #29
  100818:	eb002b43 	bl	10b52c <alt_int_dist_enable>
    // *segDispVal1 = 127;
    // *segDispVal2 = 127;
    // *segDispVal3 = 127;
    // *segDispVal4 = 127;

    updateDisplay(8888);
  10081c:	e30202b8 	movw	r0, #8888	; 0x22b8
  100820:	ebffff8f 	bl	100664 <updateDisplay>
    *buttonW = 15;
  100824:	e307328c 	movw	r3, #29324	; 0x728c
  100828:	e3403011 	movt	r3, #17
  10082c:	e5933000 	ldr	r3, [r3]
  100830:	e3a0200f 	mov	r2, #15
  100834:	e5832000 	str	r2, [r3]

    printf("hello\n");
  100838:	e3060cfc 	movw	r0, #27900	; 0x6cfc
  10083c:	e3400011 	movt	r0, #17
  100840:	eb00315d 	bl	10cdbc <puts>
        *left_sDisp[6] = 0;
        *left_sDisp[7] = 0;*/

    // printf("green\n");

    while (*button == 0) {
  100844:	e1a00000 	nop			; (mov r0, r0)
  100848:	e3073288 	movw	r3, #29320	; 0x7288
  10084c:	e3403011 	movt	r3, #17
  100850:	e5933000 	ldr	r3, [r3]
  100854:	e5933000 	ldr	r3, [r3]
  100858:	e3530000 	cmp	r3, #0
  10085c:	0afffff9 	beq	100848 <main+0xa8>

    }

    buttonRelease();
  100860:	ebfffecc 	bl	100398 <buttonRelease>

    *timerLoad = 125000000;	// approximately 5 to 6s
  100864:	e30732a0 	movw	r3, #29344	; 0x72a0
  100868:	e3403011 	movt	r3, #17
  10086c:	e5932000 	ldr	r2, [r3]
  100870:	e3053940 	movw	r3, #22848	; 0x5940
  100874:	e3403773 	movt	r3, #1907	; 0x773
  100878:	e5823000 	str	r3, [r2]
    *timerControl = 7;
  10087c:	e30732a4 	movw	r3, #29348	; 0x72a4
  100880:	e3403011 	movt	r3, #17
  100884:	e5933000 	ldr	r3, [r3]
  100888:	e3a02007 	mov	r2, #7
  10088c:	e5832000 	str	r2, [r3]
    // *timerInterrupt = 1;

    printf("hello\n");
  100890:	e3060cfc 	movw	r0, #27900	; 0x6cfc
  100894:	e3400011 	movt	r0, #17
  100898:	eb003147 	bl	10cdbc <puts>

    /* *segDispVal1 = 63;
    *segDispVal2 = 63;
    *segDispVal3 = 63;
    *segDispVal4 = 63; */
    updateDisplay(0000);
  10089c:	e3a00000 	mov	r0, #0
  1008a0:	ebffff6f 	bl	100664 <updateDisplay>
    *buttonW = 0;
  1008a4:	e307328c 	movw	r3, #29324	; 0x728c
  1008a8:	e3403011 	movt	r3, #17
  1008ac:	e5933000 	ldr	r3, [r3]
  1008b0:	e3a02000 	mov	r2, #0
  1008b4:	e5832000 	str	r2, [r3]

    score = 0;
  1008b8:	e3073c80 	movw	r3, #31872	; 0x7c80
  1008bc:	e3403011 	movt	r3, #17
  1008c0:	e3a02000 	mov	r2, #0
  1008c4:	e5832000 	str	r2, [r3]
    lives = 5;
  1008c8:	e30732ac 	movw	r3, #29356	; 0x72ac
  1008cc:	e3403011 	movt	r3, #17
  1008d0:	e3a02005 	mov	r2, #5
  1008d4:	e5832000 	str	r2, [r3]
        /* *segDispVal1 = dispNum(dispNumSupp(randnum, 0));
                *segDispVal2 = dispNum(dispNumSupp(randnum, 1));
                *segDispVal3 = dispNum(dispNumSupp(randnum, 2));
                *segDispVal4 = dispNum(dispNumSupp(randnum, 3)); */

        switch (*button) {
  1008d8:	e3073288 	movw	r3, #29320	; 0x7288
  1008dc:	e3403011 	movt	r3, #17
  1008e0:	e5933000 	ldr	r3, [r3]
  1008e4:	e5933000 	ldr	r3, [r3]
  1008e8:	e2433001 	sub	r3, r3, #1
  1008ec:	e3530007 	cmp	r3, #7
  1008f0:	979ff103 	ldrls	pc, [pc, r3, lsl #2]
  1008f4:	eafffff7 	b	1008d8 <main+0x138>
  1008f8:	00100918 	andseq	r0, r0, r8, lsl r9
  1008fc:	0010095c 	andseq	r0, r0, ip, asr r9
  100900:	001008d8 			; <UNDEFINED> instruction: 0x001008d8
  100904:	001009a0 	andseq	r0, r0, r0, lsr #19
  100908:	001008d8 			; <UNDEFINED> instruction: 0x001008d8
  10090c:	001008d8 			; <UNDEFINED> instruction: 0x001008d8
  100910:	001008d8 			; <UNDEFINED> instruction: 0x001008d8
  100914:	001009e4 	andseq	r0, r0, r4, ror #19
        case 1:
            printf("red\n");
  100918:	e3060d04 	movw	r0, #27908	; 0x6d04
  10091c:	e3400011 	movt	r0, #17
  100920:	eb003125 	bl	10cdbc <puts>
            ++n;
  100924:	e3073c7c 	movw	r3, #31868	; 0x7c7c
  100928:	e3403011 	movt	r3, #17
  10092c:	e5933000 	ldr	r3, [r3]
  100930:	e2832001 	add	r2, r3, #1
  100934:	e3073c7c 	movw	r3, #31868	; 0x7c7c
  100938:	e3403011 	movt	r3, #17
  10093c:	e5832000 	str	r2, [r3]
            buttonRelease();
  100940:	ebfffe94 	bl	100398 <buttonRelease>
            updateDisplay(n);
  100944:	e3073c7c 	movw	r3, #31868	; 0x7c7c
  100948:	e3403011 	movt	r3, #17
  10094c:	e5933000 	ldr	r3, [r3]
  100950:	e1a00003 	mov	r0, r3
  100954:	ebffff42 	bl	100664 <updateDisplay>
            //			*segDispVal3 = dispNum (dispNumSupp (n, 2));
            //			*segDispVal4 = dispNum (dispNumSupp (n, 3));
//            while (*button != 0) {

//            }
            break;
  100958:	ea000032 	b	100a28 <main+0x288>
        case 2:
            printf("blue\n");
  10095c:	e3060d08 	movw	r0, #27912	; 0x6d08
  100960:	e3400011 	movt	r0, #17
  100964:	eb003114 	bl	10cdbc <puts>
            ++n;
  100968:	e3073c7c 	movw	r3, #31868	; 0x7c7c
  10096c:	e3403011 	movt	r3, #17
  100970:	e5933000 	ldr	r3, [r3]
  100974:	e2832001 	add	r2, r3, #1
  100978:	e3073c7c 	movw	r3, #31868	; 0x7c7c
  10097c:	e3403011 	movt	r3, #17
  100980:	e5832000 	str	r2, [r3]
            buttonRelease();
  100984:	ebfffe83 	bl	100398 <buttonRelease>
            updateDisplay(n);
  100988:	e3073c7c 	movw	r3, #31868	; 0x7c7c
  10098c:	e3403011 	movt	r3, #17
  100990:	e5933000 	ldr	r3, [r3]
  100994:	e1a00003 	mov	r0, r3
  100998:	ebffff31 	bl	100664 <updateDisplay>
            //			*segDispVal3 = dispNum (dispNumSupp (n, 2));
            //			*segDispVal4 = dispNum (dispNumSupp (n, 3));
//            while (*button != 0) {

//            }
            break;
  10099c:	ea000021 	b	100a28 <main+0x288>
        case 4:
            printf("green\n");
  1009a0:	e3060d10 	movw	r0, #27920	; 0x6d10
  1009a4:	e3400011 	movt	r0, #17
  1009a8:	eb003103 	bl	10cdbc <puts>
            ++n;
  1009ac:	e3073c7c 	movw	r3, #31868	; 0x7c7c
  1009b0:	e3403011 	movt	r3, #17
  1009b4:	e5933000 	ldr	r3, [r3]
  1009b8:	e2832001 	add	r2, r3, #1
  1009bc:	e3073c7c 	movw	r3, #31868	; 0x7c7c
  1009c0:	e3403011 	movt	r3, #17
  1009c4:	e5832000 	str	r2, [r3]
            buttonRelease();
  1009c8:	ebfffe72 	bl	100398 <buttonRelease>
            updateDisplay(n);
  1009cc:	e3073c7c 	movw	r3, #31868	; 0x7c7c
  1009d0:	e3403011 	movt	r3, #17
  1009d4:	e5933000 	ldr	r3, [r3]
  1009d8:	e1a00003 	mov	r0, r3
  1009dc:	ebffff20 	bl	100664 <updateDisplay>
            //			*segDispVal3 = dispNum (dispNumSupp (n, 2));
            //			*segDispVal4 = dispNum (dispNumSupp (n, 3));
//            while (*button != 0) {

//            }
            break;
  1009e0:	ea000010 	b	100a28 <main+0x288>
        case 8:
            printf("yellow\n");
  1009e4:	e3060d18 	movw	r0, #27928	; 0x6d18
  1009e8:	e3400011 	movt	r0, #17
  1009ec:	eb0030f2 	bl	10cdbc <puts>
            ++n;
  1009f0:	e3073c7c 	movw	r3, #31868	; 0x7c7c
  1009f4:	e3403011 	movt	r3, #17
  1009f8:	e5933000 	ldr	r3, [r3]
  1009fc:	e2832001 	add	r2, r3, #1
  100a00:	e3073c7c 	movw	r3, #31868	; 0x7c7c
  100a04:	e3403011 	movt	r3, #17
  100a08:	e5832000 	str	r2, [r3]
            buttonRelease();
  100a0c:	ebfffe61 	bl	100398 <buttonRelease>
            updateDisplay(n);
  100a10:	e3073c7c 	movw	r3, #31868	; 0x7c7c
  100a14:	e3403011 	movt	r3, #17
  100a18:	e5933000 	ldr	r3, [r3]
  100a1c:	e1a00003 	mov	r0, r3
  100a20:	ebffff0f 	bl	100664 <updateDisplay>
            //			*segDispVal3 = dispNum (dispNumSupp (n, 2));
            //			*segDispVal4 = dispNum (dispNumSupp (n, 3));
//            while (*button != 0) {

//            }
            break;
  100a24:	e1a00000 	nop			; (mov r0, r0)
        }


        // printf("%u\n\r", *button);

    }
  100a28:	eaffffaa 	b	1008d8 <main+0x138>

00100a2c <tie_ui_connection_init>:
#include "tie_ui_connection.h"

void tie_ui_connection_init(){
  100a2c:	e52db004 	push	{fp}		; (str fp, [sp, #-4]!)
  100a30:	e28db000 	add	fp, sp, #0
	#define ALT_L3REGS_REMAP_ADDR (ALT_L3REGS_BASE_ADDR+ALT_L3REGS_REMAP_OFFSET)

	// initialize HPS2FPGA lightweight bridge

	// set LW to reset
	*((volatile unsigned int*)ALT_RSTMGR_BRGMODRST_ADDR) = *((volatile unsigned int*)ALT_RSTMGR_BRGMODRST_ADDR) | ALT_RSTMGR_BRGMODRST_LWH2F_SET_MSK;
  100a34:	e305301c 	movw	r3, #20508	; 0x501c
  100a38:	e34f3fd0 	movt	r3, #65488	; 0xffd0
  100a3c:	e305201c 	movw	r2, #20508	; 0x501c
  100a40:	e34f2fd0 	movt	r2, #65488	; 0xffd0
  100a44:	e5922000 	ldr	r2, [r2]
  100a48:	e3822002 	orr	r2, r2, #2
  100a4c:	e5832000 	str	r2, [r3]

	// L4 MP clock should be checked here, but we cannot really do anything about it, so we will anycase fail

	// release LW from reset
	*((volatile unsigned int*)ALT_RSTMGR_BRGMODRST_ADDR) = *((volatile unsigned int*)ALT_RSTMGR_BRGMODRST_ADDR) & ~(ALT_RSTMGR_BRGMODRST_LWH2F_SET_MSK);
  100a50:	e305301c 	movw	r3, #20508	; 0x501c
  100a54:	e34f3fd0 	movt	r3, #65488	; 0xffd0
  100a58:	e305201c 	movw	r2, #20508	; 0x501c
  100a5c:	e34f2fd0 	movt	r2, #65488	; 0xffd0
  100a60:	e5922000 	ldr	r2, [r2]
  100a64:	e3c22002 	bic	r2, r2, #2
  100a68:	e5832000 	str	r2, [r3]
	// bit[1] = 1 set On-chip RAM to address 0x0 for the non-MPU L3 masters
	// bit[2] = 0 N/A
	// bit[3] = 1 set HPS2FPGA AXI bridge visible
	// bit[4] = 1 set LW HPS2FPGA AXI bridge visible
	// -> 0x1A (0b00011010)
	*((volatile unsigned int*)ALT_L3REGS_REMAP_ADDR) = 0x0000001A;
  100a6c:	e3a03000 	mov	r3, #0
  100a70:	e34f3f80 	movt	r3, #65408	; 0xff80
  100a74:	e3a0201a 	mov	r2, #26
  100a78:	e5832000 	str	r2, [r3]
}
  100a7c:	e1a00000 	nop			; (mov r0, r0)
  100a80:	e24bd000 	sub	sp, fp, #0
  100a84:	e49db004 	pop	{fp}		; (ldr fp, [sp], #4)
  100a88:	e12fff1e 	bx	lr

00100a8c <null_printf>:

extern FILE *term1;



static __inline int null_printf(const char *format, ...){return 0;}
  100a8c:	e92d000f 	push	{r0, r1, r2, r3}
  100a90:	e52db004 	push	{fp}		; (str fp, [sp, #-4]!)
  100a94:	e28db000 	add	fp, sp, #0
  100a98:	e3a03000 	mov	r3, #0
  100a9c:	e1a00003 	mov	r0, r3
  100aa0:	e24bd000 	sub	sp, fp, #0
  100aa4:	e49db004 	pop	{fp}		; (ldr fp, [sp], #4)
  100aa8:	e28dd010 	add	sp, sp, #16
  100aac:	e12fff1e 	bx	lr

00100ab0 <alt_clk_mgr_wait>:
/* mpu_clk cycles. If mpu_clk = osc1 clock (as in bypass mode), then this gives a       */
/* minimum osc1 clock cycle delay.                                                      */
/****************************************************************************************/

static __inline void alt_clk_mgr_wait(void* reg, uint32_t cnt)
{
  100ab0:	e52db004 	push	{fp}		; (str fp, [sp, #-4]!)
  100ab4:	e28db000 	add	fp, sp, #0
  100ab8:	e24dd00c 	sub	sp, sp, #12
  100abc:	e50b0008 	str	r0, [fp, #-8]
  100ac0:	e50b100c 	str	r1, [fp, #-12]
    for (; cnt ; cnt--)
  100ac4:	ea000004 	b	100adc <alt_clk_mgr_wait+0x2c>
    {
        (void) alt_read_word(reg);
  100ac8:	e51b3008 	ldr	r3, [fp, #-8]
  100acc:	e5933000 	ldr	r3, [r3]
/* minimum osc1 clock cycle delay.                                                      */
/****************************************************************************************/

static __inline void alt_clk_mgr_wait(void* reg, uint32_t cnt)
{
    for (; cnt ; cnt--)
  100ad0:	e51b300c 	ldr	r3, [fp, #-12]
  100ad4:	e2433001 	sub	r3, r3, #1
  100ad8:	e50b300c 	str	r3, [fp, #-12]
  100adc:	e51b300c 	ldr	r3, [fp, #-12]
  100ae0:	e3530000 	cmp	r3, #0
  100ae4:	1afffff7 	bne	100ac8 <alt_clk_mgr_wait+0x18>
    {
        (void) alt_read_word(reg);
    }
}
  100ae8:	e1a00000 	nop			; (mov r0, r0)
  100aec:	e24bd000 	sub	sp, fp, #0
  100af0:	e49db004 	pop	{fp}		; (ldr fp, [sp], #4)
  100af4:	e12fff1e 	bx	lr

00100af8 <alt_clk_plls_settle_wait>:
#define ALT_TIMEOUT_PHASE_SYNC      300
        /* how many loops to wait for the SDRAM clock to come around */
        /* to zero and allow for writing a new divisor ratio to it */

ALT_STATUS_CODE alt_clk_plls_settle_wait(void)
{
  100af8:	e52db004 	push	{fp}		; (str fp, [sp, #-4]!)
  100afc:	e28db000 	add	fp, sp, #0
  100b00:	e24dd00c 	sub	sp, sp, #12
    int32_t     i = ALT_BYPASS_TIMEOUT_CNT;
  100b04:	e3a03032 	mov	r3, #50	; 0x32
  100b08:	e50b3008 	str	r3, [fp, #-8]
    bool        nofini;

    do
    {
        nofini = alt_read_word(ALT_CLKMGR_STAT_ADDR) & ALT_CLKMGR_STAT_BUSY_SET_MSK;
  100b0c:	e3043014 	movw	r3, #16404	; 0x4014
  100b10:	e34f3fd0 	movt	r3, #65488	; 0xffd0
  100b14:	e5933000 	ldr	r3, [r3]
  100b18:	e2033001 	and	r3, r3, #1
  100b1c:	e3530000 	cmp	r3, #0
  100b20:	13a03001 	movne	r3, #1
  100b24:	03a03000 	moveq	r3, #0
  100b28:	e54b3009 	strb	r3, [fp, #-9]
    } while (nofini && i--);
  100b2c:	e55b3009 	ldrb	r3, [fp, #-9]
  100b30:	e3530000 	cmp	r3, #0
  100b34:	0a000004 	beq	100b4c <alt_clk_plls_settle_wait+0x54>
  100b38:	e51b3008 	ldr	r3, [fp, #-8]
  100b3c:	e2432001 	sub	r2, r3, #1
  100b40:	e50b2008 	str	r2, [fp, #-8]
  100b44:	e3530000 	cmp	r3, #0
  100b48:	1affffef 	bne	100b0c <alt_clk_plls_settle_wait+0x14>
            /* wait until clocks finish transitioning and become stable again */
    return (i > 0) ? ALT_E_SUCCESS : ALT_E_ERROR;
  100b4c:	e51b3008 	ldr	r3, [fp, #-8]
  100b50:	e3530000 	cmp	r3, #0
  100b54:	da000001 	ble	100b60 <alt_clk_plls_settle_wait+0x68>
  100b58:	e3a03000 	mov	r3, #0
  100b5c:	ea000000 	b	100b64 <alt_clk_plls_settle_wait+0x6c>
  100b60:	e3e03000 	mvn	r3, #0
}
  100b64:	e1a00003 	mov	r0, r3
  100b68:	e24bd000 	sub	sp, fp, #0
  100b6c:	e49db004 	pop	{fp}		; (ldr fp, [sp], #4)
  100b70:	e12fff1e 	bx	lr

00100b74 <alt_clk_pll_lock_wait>:

static ALT_STATUS_CODE alt_clk_pll_lock_wait(ALT_CLK_t pll, uint32_t timeout)
{
  100b74:	e52db004 	push	{fp}		; (str fp, [sp, #-4]!)
  100b78:	e28db000 	add	fp, sp, #0
  100b7c:	e24dd014 	sub	sp, sp, #20
  100b80:	e1a03000 	mov	r3, r0
  100b84:	e50b1014 	str	r1, [fp, #-20]	; 0xffffffec
  100b88:	e54b300d 	strb	r3, [fp, #-13]
    uint32_t locked_mask = 0;
  100b8c:	e3a03000 	mov	r3, #0
  100b90:	e50b3008 	str	r3, [fp, #-8]

    if      (pll == ALT_CLK_MAIN_PLL)       { locked_mask = ALT_CLKMGR_INTER_MAINPLLLOCKED_SET_MSK; }
  100b94:	e55b300d 	ldrb	r3, [fp, #-13]
  100b98:	e3530009 	cmp	r3, #9
  100b9c:	1a000002 	bne	100bac <alt_clk_pll_lock_wait+0x38>
  100ba0:	e3a03040 	mov	r3, #64	; 0x40
  100ba4:	e50b3008 	str	r3, [fp, #-8]
  100ba8:	ea00000d 	b	100be4 <alt_clk_pll_lock_wait+0x70>
    else if (pll == ALT_CLK_PERIPHERAL_PLL) { locked_mask = ALT_CLKMGR_INTER_PERPLLLOCKED_SET_MSK; }
  100bac:	e55b300d 	ldrb	r3, [fp, #-13]
  100bb0:	e353000a 	cmp	r3, #10
  100bb4:	1a000002 	bne	100bc4 <alt_clk_pll_lock_wait+0x50>
  100bb8:	e3a03080 	mov	r3, #128	; 0x80
  100bbc:	e50b3008 	str	r3, [fp, #-8]
  100bc0:	ea000007 	b	100be4 <alt_clk_pll_lock_wait+0x70>
    else if (pll == ALT_CLK_SDRAM_PLL)      { locked_mask = ALT_CLKMGR_INTER_SDRPLLLOCKED_SET_MSK; }
  100bc4:	e55b300d 	ldrb	r3, [fp, #-13]
  100bc8:	e353000b 	cmp	r3, #11
  100bcc:	1a000002 	bne	100bdc <alt_clk_pll_lock_wait+0x68>
  100bd0:	e3a03c01 	mov	r3, #256	; 0x100
  100bd4:	e50b3008 	str	r3, [fp, #-8]
  100bd8:	ea000001 	b	100be4 <alt_clk_pll_lock_wait+0x70>
    else
    {
        return ALT_E_BAD_ARG;
  100bdc:	e3e03008 	mvn	r3, #8
  100be0:	ea000010 	b	100c28 <alt_clk_pll_lock_wait+0xb4>
    }

    do
    {
        uint32_t int_status = alt_read_word(ALT_CLKMGR_INTER_ADDR);
  100be4:	e3043008 	movw	r3, #16392	; 0x4008
  100be8:	e34f3fd0 	movt	r3, #65488	; 0xffd0
  100bec:	e5933000 	ldr	r3, [r3]
  100bf0:	e50b300c 	str	r3, [fp, #-12]
        if (int_status & locked_mask)
  100bf4:	e51b200c 	ldr	r2, [fp, #-12]
  100bf8:	e51b3008 	ldr	r3, [fp, #-8]
  100bfc:	e0033002 	and	r3, r3, r2
  100c00:	e3530000 	cmp	r3, #0
  100c04:	0a000001 	beq	100c10 <alt_clk_pll_lock_wait+0x9c>
        {
            return ALT_E_SUCCESS;
  100c08:	e3a03000 	mov	r3, #0
  100c0c:	ea000005 	b	100c28 <alt_clk_pll_lock_wait+0xb4>
        }

    } while (timeout--);
  100c10:	e51b3014 	ldr	r3, [fp, #-20]	; 0xffffffec
  100c14:	e2432001 	sub	r2, r3, #1
  100c18:	e50b2014 	str	r2, [fp, #-20]	; 0xffffffec
  100c1c:	e3530000 	cmp	r3, #0
  100c20:	1affffef 	bne	100be4 <alt_clk_pll_lock_wait+0x70>

    return ALT_E_TMO;
  100c24:	e3e0300b 	mvn	r3, #11
}
  100c28:	e1a00003 	mov	r0, r3
  100c2c:	e24bd000 	sub	sp, fp, #0
  100c30:	e49db004 	pop	{fp}		; (ldr fp, [sp], #4)
  100c34:	e12fff1e 	bx	lr

00100c38 <alt_clk_pllcounter_write>:
/* error-checking, this is a static to this file and invisible to Doxygen.              */
/****************************************************************************************/

static void alt_clk_pllcounter_write(void* vcoaddr, void* stataddr, void* cntraddr,
        uint32_t val, uint32_t msk, uint32_t shift)
{
  100c38:	e52db004 	push	{fp}		; (str fp, [sp, #-4]!)
  100c3c:	e28db000 	add	fp, sp, #0
  100c40:	e24dd01c 	sub	sp, sp, #28
  100c44:	e50b0010 	str	r0, [fp, #-16]
  100c48:	e50b1014 	str	r1, [fp, #-20]	; 0xffffffec
  100c4c:	e50b2018 	str	r2, [fp, #-24]	; 0xffffffe8
  100c50:	e50b301c 	str	r3, [fp, #-28]	; 0xffffffe4
#if ALT_PREVENT_GLITCH_CNTRRST
    /* this is here from an abundance of caution and it may not be necessary */
    /* to put the counter in reset for this write */
    volatile uint32_t   temp;

    alt_setbits_word(vcoaddr, msk << shift);                /* put the counter in reset */
  100c54:	e51b3010 	ldr	r3, [fp, #-16]
  100c58:	e5932000 	ldr	r2, [r3]
  100c5c:	e59b1004 	ldr	r1, [fp, #4]
  100c60:	e59b3008 	ldr	r3, [fp, #8]
  100c64:	e1a03311 	lsl	r3, r1, r3
  100c68:	e1822003 	orr	r2, r2, r3
  100c6c:	e51b3010 	ldr	r3, [fp, #-16]
  100c70:	e5832000 	str	r2, [r3]
    do
    {
        temp = alt_read_word(stataddr);
  100c74:	e51b3014 	ldr	r3, [fp, #-20]	; 0xffffffec
  100c78:	e5933000 	ldr	r3, [r3]
  100c7c:	e50b3008 	str	r3, [fp, #-8]
    } while (!(temp & msk));
  100c80:	e51b2008 	ldr	r2, [fp, #-8]
  100c84:	e59b3004 	ldr	r3, [fp, #4]
  100c88:	e0033002 	and	r3, r3, r2
  100c8c:	e3530000 	cmp	r3, #0
  100c90:	0afffff7 	beq	100c74 <alt_clk_pllcounter_write+0x3c>

    alt_write_word(cntraddr, val);
  100c94:	e51b3018 	ldr	r3, [fp, #-24]	; 0xffffffe8
  100c98:	e51b201c 	ldr	r2, [fp, #-28]	; 0xffffffe4
  100c9c:	e5832000 	str	r2, [r3]
    alt_clrbits_word(vcoaddr, msk << shift);                /* release counter reset */
  100ca0:	e51b3010 	ldr	r3, [fp, #-16]
  100ca4:	e5932000 	ldr	r2, [r3]
  100ca8:	e59b1004 	ldr	r1, [fp, #4]
  100cac:	e59b3008 	ldr	r3, [fp, #8]
  100cb0:	e1a03311 	lsl	r3, r1, r3
  100cb4:	e1e03003 	mvn	r3, r3
  100cb8:	e0022003 	and	r2, r2, r3
  100cbc:	e51b3010 	ldr	r3, [fp, #-16]
  100cc0:	e5832000 	str	r2, [r3]

#else       /* should we find out that resetting the counters as above is unnecessary */
    alt_write_word(cntraddr, val);
#endif
}
  100cc4:	e1a00000 	nop			; (mov r0, r0)
  100cc8:	e24bd000 	sub	sp, fp, #0
  100ccc:	e49db004 	pop	{fp}		; (ldr fp, [sp], #4)
  100cd0:	e12fff1e 	bx	lr

00100cd4 <alt_clk_lock_status_clear>:
/* alt_clk_lock_status_clear() clears assertions of one or more of the PLL lock status  */
/* conditions.                                                                          */
/****************************************************************************************/

ALT_STATUS_CODE alt_clk_lock_status_clear(ALT_CLK_PLL_LOCK_STATUS_t lock_stat_mask)
{
  100cd4:	e52db004 	push	{fp}		; (str fp, [sp, #-4]!)
  100cd8:	e28db000 	add	fp, sp, #0
  100cdc:	e24dd00c 	sub	sp, sp, #12
  100ce0:	e1a03000 	mov	r3, r0
  100ce4:	e54b3005 	strb	r3, [fp, #-5]
    if (lock_stat_mask & (  ALT_CLKMGR_INTER_MAINPLLACHIEVED_CLR_MSK
  100ce8:	e55b3005 	ldrb	r3, [fp, #-5]
  100cec:	e3c3303f 	bic	r3, r3, #63	; 0x3f
  100cf0:	e3530000 	cmp	r3, #0
  100cf4:	0a000001 	beq	100d00 <alt_clk_lock_status_clear+0x2c>
                          & ALT_CLKMGR_INTER_MAINPLLLOST_CLR_MSK
                          & ALT_CLKMGR_INTER_PERPLLLOST_CLR_MSK
                          & ALT_CLKMGR_INTER_SDRPLLLOST_CLR_MSK)
        )
    {
        return ALT_E_BAD_ARG;
  100cf8:	e3e03008 	mvn	r3, #8
  100cfc:	ea000008 	b	100d24 <alt_clk_lock_status_clear+0x50>
    }
    else
    {
        alt_setbits_word(ALT_CLKMGR_INTER_ADDR, lock_stat_mask);
  100d00:	e3043008 	movw	r3, #16392	; 0x4008
  100d04:	e34f3fd0 	movt	r3, #65488	; 0xffd0
  100d08:	e3042008 	movw	r2, #16392	; 0x4008
  100d0c:	e34f2fd0 	movt	r2, #65488	; 0xffd0
  100d10:	e5921000 	ldr	r1, [r2]
  100d14:	e55b2005 	ldrb	r2, [fp, #-5]
  100d18:	e1812002 	orr	r2, r1, r2
  100d1c:	e5832000 	str	r2, [r3]
        return ALT_E_SUCCESS;
  100d20:	e3a03000 	mov	r3, #0
    }
}
  100d24:	e1a00003 	mov	r0, r3
  100d28:	e24bd000 	sub	sp, fp, #0
  100d2c:	e49db004 	pop	{fp}		; (ldr fp, [sp], #4)
  100d30:	e12fff1e 	bx	lr

00100d34 <alt_clk_lock_status_get>:
/****************************************************************************************/
/* alt_clk_lock_status_get() returns the value of the PLL lock status conditions.       */
/****************************************************************************************/

uint32_t alt_clk_lock_status_get(void)
{
  100d34:	e52db004 	push	{fp}		; (str fp, [sp, #-4]!)
  100d38:	e28db000 	add	fp, sp, #0
    return alt_read_word(ALT_CLKMGR_INTER_ADDR) & (  ALT_CLKMGR_INTER_MAINPLLACHIEVED_SET_MSK
  100d3c:	e3043008 	movw	r3, #16392	; 0x4008
  100d40:	e34f3fd0 	movt	r3, #65488	; 0xffd0
  100d44:	e5933000 	ldr	r3, [r3]
  100d48:	e7e83053 	ubfx	r3, r3, #0, #9
                                                   | ALT_CLKMGR_INTER_PERPLLLOST_SET_MSK
                                                   | ALT_CLKMGR_INTER_SDRPLLLOST_SET_MSK
                                                   | ALT_CLKMGR_INTER_MAINPLLLOCKED_SET_MSK
                                                   | ALT_CLKMGR_INTER_PERPLLLOCKED_SET_MSK
                                                   | ALT_CLKMGR_INTER_SDRPLLLOCKED_SET_MSK );
}
  100d4c:	e1a00003 	mov	r0, r3
  100d50:	e24bd000 	sub	sp, fp, #0
  100d54:	e49db004 	pop	{fp}		; (ldr fp, [sp], #4)
  100d58:	e12fff1e 	bx	lr

00100d5c <alt_clk_pll_is_locked>:
/* alt_clk_pll_is_locked() returns ALT_E_TRUE if the designated PLL is currently        */
/* locked and ALT_E_FALSE if not.                                                       */
/****************************************************************************************/

ALT_STATUS_CODE alt_clk_pll_is_locked(ALT_CLK_t pll)
{
  100d5c:	e52db004 	push	{fp}		; (str fp, [sp, #-4]!)
  100d60:	e28db000 	add	fp, sp, #0
  100d64:	e24dd014 	sub	sp, sp, #20
  100d68:	e1a03000 	mov	r3, r0
  100d6c:	e54b300d 	strb	r3, [fp, #-13]
    ALT_STATUS_CODE status = ALT_E_BAD_ARG;
  100d70:	e3e03008 	mvn	r3, #8
  100d74:	e50b3008 	str	r3, [fp, #-8]

    if (pll == ALT_CLK_MAIN_PLL)
  100d78:	e55b300d 	ldrb	r3, [fp, #-13]
  100d7c:	e3530009 	cmp	r3, #9
  100d80:	1a000009 	bne	100dac <alt_clk_pll_is_locked+0x50>
    {
        status = (alt_read_word(ALT_CLKMGR_INTER_ADDR) & ALT_CLKMGR_INTER_MAINPLLLOCKED_SET_MSK)
  100d84:	e3043008 	movw	r3, #16392	; 0x4008
  100d88:	e34f3fd0 	movt	r3, #65488	; 0xffd0
  100d8c:	e5933000 	ldr	r3, [r3]
  100d90:	e2033040 	and	r3, r3, #64	; 0x40
                ? ALT_E_TRUE : ALT_E_FALSE;
  100d94:	e3530000 	cmp	r3, #0
  100d98:	13a03001 	movne	r3, #1
  100d9c:	03a03000 	moveq	r3, #0
  100da0:	e6ef3073 	uxtb	r3, r3
{
    ALT_STATUS_CODE status = ALT_E_BAD_ARG;

    if (pll == ALT_CLK_MAIN_PLL)
    {
        status = (alt_read_word(ALT_CLKMGR_INTER_ADDR) & ALT_CLKMGR_INTER_MAINPLLLOCKED_SET_MSK)
  100da4:	e50b3008 	str	r3, [fp, #-8]
  100da8:	ea000018 	b	100e10 <alt_clk_pll_is_locked+0xb4>
                ? ALT_E_TRUE : ALT_E_FALSE;
    }
    else if (pll == ALT_CLK_PERIPHERAL_PLL)
  100dac:	e55b300d 	ldrb	r3, [fp, #-13]
  100db0:	e353000a 	cmp	r3, #10
  100db4:	1a000009 	bne	100de0 <alt_clk_pll_is_locked+0x84>
    {
        status = (alt_read_word(ALT_CLKMGR_INTER_ADDR) & ALT_CLKMGR_INTER_PERPLLLOCKED_SET_MSK)
  100db8:	e3043008 	movw	r3, #16392	; 0x4008
  100dbc:	e34f3fd0 	movt	r3, #65488	; 0xffd0
  100dc0:	e5933000 	ldr	r3, [r3]
  100dc4:	e2033080 	and	r3, r3, #128	; 0x80
                ? ALT_E_TRUE : ALT_E_FALSE;
  100dc8:	e3530000 	cmp	r3, #0
  100dcc:	13a03001 	movne	r3, #1
  100dd0:	03a03000 	moveq	r3, #0
  100dd4:	e6ef3073 	uxtb	r3, r3
        status = (alt_read_word(ALT_CLKMGR_INTER_ADDR) & ALT_CLKMGR_INTER_MAINPLLLOCKED_SET_MSK)
                ? ALT_E_TRUE : ALT_E_FALSE;
    }
    else if (pll == ALT_CLK_PERIPHERAL_PLL)
    {
        status = (alt_read_word(ALT_CLKMGR_INTER_ADDR) & ALT_CLKMGR_INTER_PERPLLLOCKED_SET_MSK)
  100dd8:	e50b3008 	str	r3, [fp, #-8]
  100ddc:	ea00000b 	b	100e10 <alt_clk_pll_is_locked+0xb4>
                ? ALT_E_TRUE : ALT_E_FALSE;
    }
    else if (pll == ALT_CLK_SDRAM_PLL)
  100de0:	e55b300d 	ldrb	r3, [fp, #-13]
  100de4:	e353000b 	cmp	r3, #11
  100de8:	1a000008 	bne	100e10 <alt_clk_pll_is_locked+0xb4>
    {
        status = (alt_read_word(ALT_CLKMGR_INTER_ADDR) & ALT_CLKMGR_INTER_SDRPLLLOCKED_SET_MSK)
  100dec:	e3043008 	movw	r3, #16392	; 0x4008
  100df0:	e34f3fd0 	movt	r3, #65488	; 0xffd0
  100df4:	e5933000 	ldr	r3, [r3]
  100df8:	e2033c01 	and	r3, r3, #256	; 0x100
                ? ALT_E_TRUE : ALT_E_FALSE;
  100dfc:	e3530000 	cmp	r3, #0
  100e00:	13a03001 	movne	r3, #1
  100e04:	03a03000 	moveq	r3, #0
  100e08:	e6ef3073 	uxtb	r3, r3
        status = (alt_read_word(ALT_CLKMGR_INTER_ADDR) & ALT_CLKMGR_INTER_PERPLLLOCKED_SET_MSK)
                ? ALT_E_TRUE : ALT_E_FALSE;
    }
    else if (pll == ALT_CLK_SDRAM_PLL)
    {
        status = (alt_read_word(ALT_CLKMGR_INTER_ADDR) & ALT_CLKMGR_INTER_SDRPLLLOCKED_SET_MSK)
  100e0c:	e50b3008 	str	r3, [fp, #-8]
                ? ALT_E_TRUE : ALT_E_FALSE;
    }
    return status;
  100e10:	e51b3008 	ldr	r3, [fp, #-8]
}
  100e14:	e1a00003 	mov	r0, r3
  100e18:	e24bd000 	sub	sp, fp, #0
  100e1c:	e49db004 	pop	{fp}		; (ldr fp, [sp], #4)
  100e20:	e12fff1e 	bx	lr

00100e24 <alt_clk_safe_mode_clear>:
/* alt_clk_safe_mode_clear() clears the safe mode status of the Clock Manager following */
/* a reset.                                                                             */
/****************************************************************************************/

ALT_STATUS_CODE alt_clk_safe_mode_clear(void)
{
  100e24:	e92d4800 	push	{fp, lr}
  100e28:	e28db004 	add	fp, sp, #4
  100e2c:	e24dd008 	sub	sp, sp, #8
    ALT_STATUS_CODE status = ALT_E_ERROR;
  100e30:	e3e03000 	mvn	r3, #0
  100e34:	e50b3008 	str	r3, [fp, #-8]
#if ALT_PREVENT_GLITCH_EXSAFE
    uint32_t        temp;

    temp = alt_read_word(ALT_CLKMGR_MAINPLL_EN_ADDR);
  100e38:	e3043060 	movw	r3, #16480	; 0x4060
  100e3c:	e34f3fd0 	movt	r3, #65488	; 0xffd0
  100e40:	e5933000 	ldr	r3, [r3]
  100e44:	e50b300c 	str	r3, [fp, #-12]
    alt_write_word(ALT_CLKMGR_MAINPLL_EN_ADDR, temp &
  100e48:	e3043060 	movw	r3, #16480	; 0x4060
  100e4c:	e34f3fd0 	movt	r3, #65488	; 0xffd0
  100e50:	e51b200c 	ldr	r2, [fp, #-12]
  100e54:	e3c2200c 	bic	r2, r2, #12
  100e58:	e5832000 	str	r2, [r3]
            (ALT_CLKMGR_MAINPLL_EN_L4MPCLK_CLR_MSK & ALT_CLKMGR_MAINPLL_EN_L4SPCLK_CLR_MSK));
                    /* gate off l4MP and L4SP clocks (no matter their source) */

    alt_setbits_word(ALT_CLKMGR_CTL_ADDR, ALT_CLKMGR_CTL_SAFEMOD_SET_MSK);
  100e5c:	e3a03901 	mov	r3, #16384	; 0x4000
  100e60:	e34f3fd0 	movt	r3, #65488	; 0xffd0
  100e64:	e3a02901 	mov	r2, #16384	; 0x4000
  100e68:	e34f2fd0 	movt	r2, #65488	; 0xffd0
  100e6c:	e5922000 	ldr	r2, [r2]
  100e70:	e3822001 	orr	r2, r2, #1
  100e74:	e5832000 	str	r2, [r3]
                    /* clear safe mode bit */
    status = alt_clk_plls_settle_wait();
  100e78:	ebffff1e 	bl	100af8 <alt_clk_plls_settle_wait>
  100e7c:	e50b0008 	str	r0, [fp, #-8]
    alt_replbits_word(ALT_CLKMGR_MAINPLL_EN_ADDR,
  100e80:	e3043060 	movw	r3, #16480	; 0x4060
  100e84:	e34f3fd0 	movt	r3, #65488	; 0xffd0
  100e88:	e3042060 	movw	r2, #16480	; 0x4060
  100e8c:	e34f2fd0 	movt	r2, #65488	; 0xffd0
  100e90:	e5922000 	ldr	r2, [r2]
  100e94:	e3c2100c 	bic	r1, r2, #12
  100e98:	e51b200c 	ldr	r2, [fp, #-12]
  100e9c:	e202200c 	and	r2, r2, #12
  100ea0:	e1812002 	orr	r2, r1, r2
  100ea4:	e5832000 	str	r2, [r3]
    alt_setbits_word(ALT_CLKMGR_CTL_ADDR, ALT_CLKMGR_CTL_SAFEMOD_SET_MSK);
                    /* clear safe mode bit */
    status = alt_clk_plls_settle_wait();

#endif
    return status;
  100ea8:	e51b3008 	ldr	r3, [fp, #-8]
}
  100eac:	e1a00003 	mov	r0, r3
  100eb0:	e24bd004 	sub	sp, fp, #4
  100eb4:	e8bd8800 	pop	{fp, pc}

00100eb8 <alt_clk_is_in_safe_mode>:
/* alt_clk_is_in_safe_mode() returns whether the specified safe mode clock domain is in */
/* safe mode or not.                                                                    */
/****************************************************************************************/

bool alt_clk_is_in_safe_mode(ALT_CLK_SAFE_DOMAIN_t clk_domain)
{
  100eb8:	e52db004 	push	{fp}		; (str fp, [sp, #-4]!)
  100ebc:	e28db000 	add	fp, sp, #0
  100ec0:	e24dd014 	sub	sp, sp, #20
  100ec4:	e1a03000 	mov	r3, r0
  100ec8:	e54b300d 	strb	r3, [fp, #-13]
    bool        ret = false;
  100ecc:	e3a03000 	mov	r3, #0
  100ed0:	e54b3005 	strb	r3, [fp, #-5]
    uint32_t    temp;

    if (clk_domain == ALT_CLK_DOMAIN_NORMAL)
  100ed4:	e55b300d 	ldrb	r3, [fp, #-13]
  100ed8:	e3530000 	cmp	r3, #0
  100edc:	1a000008 	bne	100f04 <alt_clk_is_in_safe_mode+0x4c>
    {
        ret = alt_read_word(ALT_CLKMGR_CTL_ADDR) & ALT_CLKMGR_CTL_SAFEMOD_SET_MSK;
  100ee0:	e3a03901 	mov	r3, #16384	; 0x4000
  100ee4:	e34f3fd0 	movt	r3, #65488	; 0xffd0
  100ee8:	e5933000 	ldr	r3, [r3]
  100eec:	e2033001 	and	r3, r3, #1
  100ef0:	e3530000 	cmp	r3, #0
  100ef4:	13a03001 	movne	r3, #1
  100ef8:	03a03000 	moveq	r3, #0
  100efc:	e54b3005 	strb	r3, [fp, #-5]
  100f00:	ea000019 	b	100f6c <alt_clk_is_in_safe_mode+0xb4>
                /* is the main clock domain in safe mode? */
    }
    else if (clk_domain == ALT_CLK_DOMAIN_DEBUG)
  100f04:	e55b300d 	ldrb	r3, [fp, #-13]
  100f08:	e3530001 	cmp	r3, #1
  100f0c:	1a000016 	bne	100f6c <alt_clk_is_in_safe_mode+0xb4>
    {
        temp = alt_read_word(ALT_CLKMGR_DBCTL_ADDR);
  100f10:	e3043010 	movw	r3, #16400	; 0x4010
  100f14:	e34f3fd0 	movt	r3, #65488	; 0xffd0
  100f18:	e5933000 	ldr	r3, [r3]
  100f1c:	e50b300c 	str	r3, [fp, #-12]
        if (temp & ALT_CLKMGR_DBCTL_STAYOSC1_SET_MSK)
  100f20:	e51b300c 	ldr	r3, [fp, #-12]
  100f24:	e2033001 	and	r3, r3, #1
  100f28:	e3530000 	cmp	r3, #0
  100f2c:	0a000002 	beq	100f3c <alt_clk_is_in_safe_mode+0x84>
        {
            ret = true;                /* is the debug clock domain in safe mode? */
  100f30:	e3a03001 	mov	r3, #1
  100f34:	e54b3005 	strb	r3, [fp, #-5]
  100f38:	ea00000b 	b	100f6c <alt_clk_is_in_safe_mode+0xb4>
        }
        else if (temp & ALT_CLKMGR_DBCTL_ENSFMDWR_SET_MSK)
  100f3c:	e51b300c 	ldr	r3, [fp, #-12]
  100f40:	e2033002 	and	r3, r3, #2
  100f44:	e3530000 	cmp	r3, #0
  100f48:	0a000007 	beq	100f6c <alt_clk_is_in_safe_mode+0xb4>
        {
            ret = alt_read_word(ALT_CLKMGR_CTL_ADDR) & ALT_CLKMGR_CTL_SAFEMOD_SET_MSK;
  100f4c:	e3a03901 	mov	r3, #16384	; 0x4000
  100f50:	e34f3fd0 	movt	r3, #65488	; 0xffd0
  100f54:	e5933000 	ldr	r3, [r3]
  100f58:	e2033001 	and	r3, r3, #1
  100f5c:	e3530000 	cmp	r3, #0
  100f60:	13a03001 	movne	r3, #1
  100f64:	03a03000 	moveq	r3, #0
  100f68:	e54b3005 	strb	r3, [fp, #-5]
                    /* is the debug clock domain following the main clock domain */
                    /* AND is the main clock domain in safe mode? */
        }
    }
    return ret;
  100f6c:	e55b3005 	ldrb	r3, [fp, #-5]
}
  100f70:	e1a00003 	mov	r0, r3
  100f74:	e24bd000 	sub	sp, fp, #0
  100f78:	e49db004 	pop	{fp}		; (ldr fp, [sp], #4)
  100f7c:	e12fff1e 	bx	lr

00100f80 <alt_clk_pll_bypass_disable>:
/* it from bypass mode and allowing it to provide the output of the PLL to drive the    */
/* six main clocks.                                                                     */
/****************************************************************************************/

ALT_STATUS_CODE alt_clk_pll_bypass_disable(ALT_CLK_t pll)
{
  100f80:	e92d4800 	push	{fp, lr}
  100f84:	e28db004 	add	fp, sp, #4
  100f88:	e24dd018 	sub	sp, sp, #24
  100f8c:	e1a03000 	mov	r3, r0
  100f90:	e54b3015 	strb	r3, [fp, #-21]	; 0xffffffeb
    ALT_STATUS_CODE status = ALT_E_BAD_ARG;
  100f94:	e3e03008 	mvn	r3, #8
  100f98:	e50b3008 	str	r3, [fp, #-8]
    uint32_t        temp;
#if  ALT_PREVENT_GLITCH_BYP
    uint32_t        temp1;
    bool            restore_0 = false;
  100f9c:	e3a03000 	mov	r3, #0
  100fa0:	e54b300d 	strb	r3, [fp, #-13]
    bool            restore_1 = false;
  100fa4:	e3a03000 	mov	r3, #0
  100fa8:	e54b300e 	strb	r3, [fp, #-14]
#endif

    /* this function should only be called after the selected PLL is locked */
    if (alt_clk_pll_is_locked(pll) == ALT_E_TRUE)
  100fac:	e55b3015 	ldrb	r3, [fp, #-21]	; 0xffffffeb
  100fb0:	e1a00003 	mov	r0, r3
  100fb4:	ebffff68 	bl	100d5c <alt_clk_pll_is_locked>
  100fb8:	e1a03000 	mov	r3, r0
  100fbc:	e3530001 	cmp	r3, #1
  100fc0:	1a0000d7 	bne	101324 <alt_clk_pll_bypass_disable+0x3a4>
    {
        if (pll == ALT_CLK_MAIN_PLL)
  100fc4:	e55b3015 	ldrb	r3, [fp, #-21]	; 0xffffffeb
  100fc8:	e3530009 	cmp	r3, #9
  100fcc:	1a00005a 	bne	10113c <alt_clk_pll_bypass_disable+0x1bc>
        {
#if  ALT_PREVENT_GLITCH_BYP
            /* if L4MP or L4SP source is set to Main PLL C1, gate it off before changing */
            /* bypass state, then gate clock back on. FogBugz #63778 */
            temp  = alt_read_word(ALT_CLKMGR_MAINPLL_L4SRC_ADDR);
  100fd0:	e3043070 	movw	r3, #16496	; 0x4070
  100fd4:	e34f3fd0 	movt	r3, #65488	; 0xffd0
  100fd8:	e5933000 	ldr	r3, [r3]
  100fdc:	e50b300c 	str	r3, [fp, #-12]
            temp1 = alt_read_word(ALT_CLKMGR_MAINPLL_EN_ADDR);
  100fe0:	e3043060 	movw	r3, #16480	; 0x4060
  100fe4:	e34f3fd0 	movt	r3, #65488	; 0xffd0
  100fe8:	e5933000 	ldr	r3, [r3]
  100fec:	e50b3014 	str	r3, [fp, #-20]	; 0xffffffec

            if ((temp1 & ALT_CLKMGR_MAINPLL_EN_L4MPCLK_SET_MSK) && (!(temp & ALT_CLKMGR_MAINPLL_L4SRC_L4MP_SET_MSK)))
  100ff0:	e51b3014 	ldr	r3, [fp, #-20]	; 0xffffffec
  100ff4:	e2033004 	and	r3, r3, #4
  100ff8:	e3530000 	cmp	r3, #0
  100ffc:	0a000005 	beq	101018 <alt_clk_pll_bypass_disable+0x98>
  101000:	e51b300c 	ldr	r3, [fp, #-12]
  101004:	e2033001 	and	r3, r3, #1
  101008:	e3530000 	cmp	r3, #0
  10100c:	1a000001 	bne	101018 <alt_clk_pll_bypass_disable+0x98>
            {
                restore_0 = true;
  101010:	e3a03001 	mov	r3, #1
  101014:	e54b300d 	strb	r3, [fp, #-13]
            }
            if ((temp1 & ALT_CLKMGR_MAINPLL_EN_L4SPCLK_SET_MSK) && (!(temp & ALT_CLKMGR_MAINPLL_L4SRC_L4SP_SET_MSK)))
  101018:	e51b3014 	ldr	r3, [fp, #-20]	; 0xffffffec
  10101c:	e2033008 	and	r3, r3, #8
  101020:	e3530000 	cmp	r3, #0
  101024:	0a000005 	beq	101040 <alt_clk_pll_bypass_disable+0xc0>
  101028:	e51b300c 	ldr	r3, [fp, #-12]
  10102c:	e2033002 	and	r3, r3, #2
  101030:	e3530000 	cmp	r3, #0
  101034:	1a000001 	bne	101040 <alt_clk_pll_bypass_disable+0xc0>
            {
                restore_1 = true;
  101038:	e3a03001 	mov	r3, #1
  10103c:	e54b300e 	strb	r3, [fp, #-14]
            }
            temp = temp1;
  101040:	e51b3014 	ldr	r3, [fp, #-20]	; 0xffffffec
  101044:	e50b300c 	str	r3, [fp, #-12]
            if (restore_0) { temp &= ALT_CLKMGR_MAINPLL_EN_L4MPCLK_CLR_MSK; }
  101048:	e55b300d 	ldrb	r3, [fp, #-13]
  10104c:	e3530000 	cmp	r3, #0
  101050:	0a000002 	beq	101060 <alt_clk_pll_bypass_disable+0xe0>
  101054:	e51b300c 	ldr	r3, [fp, #-12]
  101058:	e3c33004 	bic	r3, r3, #4
  10105c:	e50b300c 	str	r3, [fp, #-12]
            if (restore_1) { temp &= ALT_CLKMGR_MAINPLL_EN_L4SPCLK_CLR_MSK; }
  101060:	e55b300e 	ldrb	r3, [fp, #-14]
  101064:	e3530000 	cmp	r3, #0
  101068:	0a000002 	beq	101078 <alt_clk_pll_bypass_disable+0xf8>
  10106c:	e51b300c 	ldr	r3, [fp, #-12]
  101070:	e3c33008 	bic	r3, r3, #8
  101074:	e50b300c 	str	r3, [fp, #-12]
            if (restore_0 || restore_1) { alt_write_word(ALT_CLKMGR_MAINPLL_EN_ADDR, temp); }
  101078:	e55b300d 	ldrb	r3, [fp, #-13]
  10107c:	e3530000 	cmp	r3, #0
  101080:	1a000002 	bne	101090 <alt_clk_pll_bypass_disable+0x110>
  101084:	e55b300e 	ldrb	r3, [fp, #-14]
  101088:	e3530000 	cmp	r3, #0
  10108c:	0a000003 	beq	1010a0 <alt_clk_pll_bypass_disable+0x120>
  101090:	e3043060 	movw	r3, #16480	; 0x4060
  101094:	e34f3fd0 	movt	r3, #65488	; 0xffd0
  101098:	e51b200c 	ldr	r2, [fp, #-12]
  10109c:	e5832000 	str	r2, [r3]
#endif

            /* assert outresetall of main PLL */
            temp = alt_read_word(ALT_CLKMGR_MAINPLL_VCO_ADDR);
  1010a0:	e3043040 	movw	r3, #16448	; 0x4040
  1010a4:	e34f3fd0 	movt	r3, #65488	; 0xffd0
  1010a8:	e5933000 	ldr	r3, [r3]
  1010ac:	e50b300c 	str	r3, [fp, #-12]
            alt_write_word(ALT_CLKMGR_MAINPLL_VCO_ADDR, temp | ALT_CLKMGR_MAINPLL_VCO_OUTRSTALL_SET_MSK);
  1010b0:	e3043040 	movw	r3, #16448	; 0x4040
  1010b4:	e34f3fd0 	movt	r3, #65488	; 0xffd0
  1010b8:	e51b200c 	ldr	r2, [fp, #-12]
  1010bc:	e3822401 	orr	r2, r2, #16777216	; 0x1000000
  1010c0:	e5832000 	str	r2, [r3]

            /* deassert outresetall of main PLL */
            alt_write_word(ALT_CLKMGR_MAINPLL_VCO_ADDR, temp & ALT_CLKMGR_MAINPLL_VCO_OUTRSTALL_CLR_MSK);
  1010c4:	e3043040 	movw	r3, #16448	; 0x4040
  1010c8:	e34f3fd0 	movt	r3, #65488	; 0xffd0
  1010cc:	e51b200c 	ldr	r2, [fp, #-12]
  1010d0:	e3c22401 	bic	r2, r2, #16777216	; 0x1000000
  1010d4:	e5832000 	str	r2, [r3]

            alt_clk_plls_settle_wait();
  1010d8:	ebfffe86 	bl	100af8 <alt_clk_plls_settle_wait>

            /* remove bypass */
            alt_clrbits_word(ALT_CLKMGR_BYPASS_ADDR, ALT_CLKMGR_BYPASS_MAINPLL_SET_MSK);
  1010dc:	e3043004 	movw	r3, #16388	; 0x4004
  1010e0:	e34f3fd0 	movt	r3, #65488	; 0xffd0
  1010e4:	e3042004 	movw	r2, #16388	; 0x4004
  1010e8:	e34f2fd0 	movt	r2, #65488	; 0xffd0
  1010ec:	e5922000 	ldr	r2, [r2]
  1010f0:	e3c22001 	bic	r2, r2, #1
  1010f4:	e5832000 	str	r2, [r3]
            status = alt_clk_plls_settle_wait();
  1010f8:	ebfffe7e 	bl	100af8 <alt_clk_plls_settle_wait>
  1010fc:	e50b0008 	str	r0, [fp, #-8]

#if  ALT_PREVENT_GLITCH_BYP
            if (restore_0 || restore_1)
  101100:	e55b300d 	ldrb	r3, [fp, #-13]
  101104:	e3530000 	cmp	r3, #0
  101108:	1a000002 	bne	101118 <alt_clk_pll_bypass_disable+0x198>
  10110c:	e55b300e 	ldrb	r3, [fp, #-14]
  101110:	e3530000 	cmp	r3, #0
  101114:	0a000084 	beq	10132c <alt_clk_pll_bypass_disable+0x3ac>
            {
                alt_clk_mgr_wait(ALT_CLKMGR_MAINPLL_EN_ADDR, ALT_SW_MANAGED_CLK_WAIT_CTRDIV);
  101118:	e3a0101e 	mov	r1, #30
  10111c:	e3040060 	movw	r0, #16480	; 0x4060
  101120:	e34f0fd0 	movt	r0, #65488	; 0xffd0
  101124:	ebfffe61 	bl	100ab0 <alt_clk_mgr_wait>
                            /* wait a bit more before reenabling the L4MP and L4SP clocks */
                alt_write_word(ALT_CLKMGR_MAINPLL_EN_ADDR, temp1);
  101128:	e3043060 	movw	r3, #16480	; 0x4060
  10112c:	e34f3fd0 	movt	r3, #65488	; 0xffd0
  101130:	e51b2014 	ldr	r2, [fp, #-20]	; 0xffffffec
  101134:	e5832000 	str	r2, [r3]
  101138:	ea00007b 	b	10132c <alt_clk_pll_bypass_disable+0x3ac>
            }
#endif
        }

        else if (pll == ALT_CLK_PERIPHERAL_PLL)
  10113c:	e55b3015 	ldrb	r3, [fp, #-21]	; 0xffffffeb
  101140:	e353000a 	cmp	r3, #10
  101144:	1a00005a 	bne	1012b4 <alt_clk_pll_bypass_disable+0x334>
        {
#if  ALT_PREVENT_GLITCH_BYP
            /* if L4MP or L4SP source is set to Main PLL C1, gate it off before changing */
            /* bypass state, then gate clock back on. FogBugz #63778 */
            temp = alt_read_word(ALT_CLKMGR_MAINPLL_L4SRC_ADDR);
  101148:	e3043070 	movw	r3, #16496	; 0x4070
  10114c:	e34f3fd0 	movt	r3, #65488	; 0xffd0
  101150:	e5933000 	ldr	r3, [r3]
  101154:	e50b300c 	str	r3, [fp, #-12]
            temp1 = alt_read_word(ALT_CLKMGR_MAINPLL_EN_ADDR);
  101158:	e3043060 	movw	r3, #16480	; 0x4060
  10115c:	e34f3fd0 	movt	r3, #65488	; 0xffd0
  101160:	e5933000 	ldr	r3, [r3]
  101164:	e50b3014 	str	r3, [fp, #-20]	; 0xffffffec

            if ((temp1 & ALT_CLKMGR_MAINPLL_EN_L4MPCLK_SET_MSK) && (temp & ALT_CLKMGR_MAINPLL_L4SRC_L4MP_SET_MSK))
  101168:	e51b3014 	ldr	r3, [fp, #-20]	; 0xffffffec
  10116c:	e2033004 	and	r3, r3, #4
  101170:	e3530000 	cmp	r3, #0
  101174:	0a000005 	beq	101190 <alt_clk_pll_bypass_disable+0x210>
  101178:	e51b300c 	ldr	r3, [fp, #-12]
  10117c:	e2033001 	and	r3, r3, #1
  101180:	e3530000 	cmp	r3, #0
  101184:	0a000001 	beq	101190 <alt_clk_pll_bypass_disable+0x210>
            {
                    restore_0 = true;
  101188:	e3a03001 	mov	r3, #1
  10118c:	e54b300d 	strb	r3, [fp, #-13]
            }
            if ((temp1 & ALT_CLKMGR_MAINPLL_EN_L4SPCLK_SET_MSK) && (temp & ALT_CLKMGR_MAINPLL_L4SRC_L4SP_SET_MSK))
  101190:	e51b3014 	ldr	r3, [fp, #-20]	; 0xffffffec
  101194:	e2033008 	and	r3, r3, #8
  101198:	e3530000 	cmp	r3, #0
  10119c:	0a000005 	beq	1011b8 <alt_clk_pll_bypass_disable+0x238>
  1011a0:	e51b300c 	ldr	r3, [fp, #-12]
  1011a4:	e2033002 	and	r3, r3, #2
  1011a8:	e3530000 	cmp	r3, #0
  1011ac:	0a000001 	beq	1011b8 <alt_clk_pll_bypass_disable+0x238>
            {
                    restore_1 = true;
  1011b0:	e3a03001 	mov	r3, #1
  1011b4:	e54b300e 	strb	r3, [fp, #-14]
            }
            temp = temp1;
  1011b8:	e51b3014 	ldr	r3, [fp, #-20]	; 0xffffffec
  1011bc:	e50b300c 	str	r3, [fp, #-12]
            if (restore_0)  { temp &= ALT_CLKMGR_MAINPLL_EN_L4MPCLK_CLR_MSK; }
  1011c0:	e55b300d 	ldrb	r3, [fp, #-13]
  1011c4:	e3530000 	cmp	r3, #0
  1011c8:	0a000002 	beq	1011d8 <alt_clk_pll_bypass_disable+0x258>
  1011cc:	e51b300c 	ldr	r3, [fp, #-12]
  1011d0:	e3c33004 	bic	r3, r3, #4
  1011d4:	e50b300c 	str	r3, [fp, #-12]
            if (restore_1)  { temp &= ALT_CLKMGR_MAINPLL_EN_L4SPCLK_CLR_MSK; }
  1011d8:	e55b300e 	ldrb	r3, [fp, #-14]
  1011dc:	e3530000 	cmp	r3, #0
  1011e0:	0a000002 	beq	1011f0 <alt_clk_pll_bypass_disable+0x270>
  1011e4:	e51b300c 	ldr	r3, [fp, #-12]
  1011e8:	e3c33008 	bic	r3, r3, #8
  1011ec:	e50b300c 	str	r3, [fp, #-12]
            if (restore_0 || restore_1) { alt_write_word(ALT_CLKMGR_MAINPLL_EN_ADDR, temp); }
  1011f0:	e55b300d 	ldrb	r3, [fp, #-13]
  1011f4:	e3530000 	cmp	r3, #0
  1011f8:	1a000002 	bne	101208 <alt_clk_pll_bypass_disable+0x288>
  1011fc:	e55b300e 	ldrb	r3, [fp, #-14]
  101200:	e3530000 	cmp	r3, #0
  101204:	0a000003 	beq	101218 <alt_clk_pll_bypass_disable+0x298>
  101208:	e3043060 	movw	r3, #16480	; 0x4060
  10120c:	e34f3fd0 	movt	r3, #65488	; 0xffd0
  101210:	e51b200c 	ldr	r2, [fp, #-12]
  101214:	e5832000 	str	r2, [r3]
#endif

            /* assert outresetall of Peripheral PLL */
            temp = alt_read_word(ALT_CLKMGR_PERPLL_VCO_ADDR);
  101218:	e3043080 	movw	r3, #16512	; 0x4080
  10121c:	e34f3fd0 	movt	r3, #65488	; 0xffd0
  101220:	e5933000 	ldr	r3, [r3]
  101224:	e50b300c 	str	r3, [fp, #-12]
            alt_write_word(ALT_CLKMGR_PERPLL_VCO_ADDR, temp | ALT_CLKMGR_PERPLL_VCO_OUTRSTALL_SET_MSK);
  101228:	e3043080 	movw	r3, #16512	; 0x4080
  10122c:	e34f3fd0 	movt	r3, #65488	; 0xffd0
  101230:	e51b200c 	ldr	r2, [fp, #-12]
  101234:	e3822401 	orr	r2, r2, #16777216	; 0x1000000
  101238:	e5832000 	str	r2, [r3]
            alt_clk_plls_settle_wait();
  10123c:	ebfffe2d 	bl	100af8 <alt_clk_plls_settle_wait>

            /* deassert outresetall of main PLL */
            alt_write_word(ALT_CLKMGR_PERPLL_VCO_ADDR, temp & ALT_CLKMGR_PERPLL_VCO_OUTRSTALL_CLR_MSK);
  101240:	e3043080 	movw	r3, #16512	; 0x4080
  101244:	e34f3fd0 	movt	r3, #65488	; 0xffd0
  101248:	e51b200c 	ldr	r2, [fp, #-12]
  10124c:	e3c22401 	bic	r2, r2, #16777216	; 0x1000000
  101250:	e5832000 	str	r2, [r3]

            /* remove bypass - don't think that there's any need to touch the bypass clock source */
            alt_clrbits_word(ALT_CLKMGR_BYPASS_ADDR, ALT_CLKMGR_BYPASS_PERPLL_SET_MSK);
  101254:	e3043004 	movw	r3, #16388	; 0x4004
  101258:	e34f3fd0 	movt	r3, #65488	; 0xffd0
  10125c:	e3042004 	movw	r2, #16388	; 0x4004
  101260:	e34f2fd0 	movt	r2, #65488	; 0xffd0
  101264:	e5922000 	ldr	r2, [r2]
  101268:	e3c22008 	bic	r2, r2, #8
  10126c:	e5832000 	str	r2, [r3]
            status = alt_clk_plls_settle_wait();
  101270:	ebfffe20 	bl	100af8 <alt_clk_plls_settle_wait>
  101274:	e50b0008 	str	r0, [fp, #-8]

#if  ALT_PREVENT_GLITCH_BYP
            if (restore_0 || restore_1)
  101278:	e55b300d 	ldrb	r3, [fp, #-13]
  10127c:	e3530000 	cmp	r3, #0
  101280:	1a000002 	bne	101290 <alt_clk_pll_bypass_disable+0x310>
  101284:	e55b300e 	ldrb	r3, [fp, #-14]
  101288:	e3530000 	cmp	r3, #0
  10128c:	0a000026 	beq	10132c <alt_clk_pll_bypass_disable+0x3ac>
            {
                alt_clk_mgr_wait(ALT_CLKMGR_MAINPLL_EN_ADDR, ALT_SW_MANAGED_CLK_WAIT_CTRDIV);
  101290:	e3a0101e 	mov	r1, #30
  101294:	e3040060 	movw	r0, #16480	; 0x4060
  101298:	e34f0fd0 	movt	r0, #65488	; 0xffd0
  10129c:	ebfffe03 	bl	100ab0 <alt_clk_mgr_wait>
                            /* wait a bit more before reenabling the L4MP and L4SP clocks */
                alt_write_word(ALT_CLKMGR_MAINPLL_EN_ADDR, temp1);
  1012a0:	e3043060 	movw	r3, #16480	; 0x4060
  1012a4:	e34f3fd0 	movt	r3, #65488	; 0xffd0
  1012a8:	e51b2014 	ldr	r2, [fp, #-20]	; 0xffffffec
  1012ac:	e5832000 	str	r2, [r3]
  1012b0:	ea00001d 	b	10132c <alt_clk_pll_bypass_disable+0x3ac>
            }
#endif
        }

        else if (pll == ALT_CLK_SDRAM_PLL)
  1012b4:	e55b3015 	ldrb	r3, [fp, #-21]	; 0xffffffeb
  1012b8:	e353000b 	cmp	r3, #11
  1012bc:	1a00001a 	bne	10132c <alt_clk_pll_bypass_disable+0x3ac>
        {
            /* assert outresetall of SDRAM PLL */
            temp = alt_read_word(ALT_CLKMGR_SDRPLL_VCO_ADDR);
  1012c0:	e30430c0 	movw	r3, #16576	; 0x40c0
  1012c4:	e34f3fd0 	movt	r3, #65488	; 0xffd0
  1012c8:	e5933000 	ldr	r3, [r3]
  1012cc:	e50b300c 	str	r3, [fp, #-12]
            alt_write_word(ALT_CLKMGR_SDRPLL_VCO_ADDR, temp | ALT_CLKMGR_SDRPLL_VCO_OUTRSTALL_SET_MSK);
  1012d0:	e30430c0 	movw	r3, #16576	; 0x40c0
  1012d4:	e34f3fd0 	movt	r3, #65488	; 0xffd0
  1012d8:	e51b200c 	ldr	r2, [fp, #-12]
  1012dc:	e3822401 	orr	r2, r2, #16777216	; 0x1000000
  1012e0:	e5832000 	str	r2, [r3]

            /* deassert outresetall of main PLL */
            alt_write_word(ALT_CLKMGR_SDRPLL_VCO_ADDR, temp & ALT_CLKMGR_SDRPLL_VCO_OUTRSTALL_CLR_MSK);
  1012e4:	e30430c0 	movw	r3, #16576	; 0x40c0
  1012e8:	e34f3fd0 	movt	r3, #65488	; 0xffd0
  1012ec:	e51b200c 	ldr	r2, [fp, #-12]
  1012f0:	e3c22401 	bic	r2, r2, #16777216	; 0x1000000
  1012f4:	e5832000 	str	r2, [r3]
            alt_clk_plls_settle_wait();
  1012f8:	ebfffdfe 	bl	100af8 <alt_clk_plls_settle_wait>

            /* remove bypass - don't think that there's any need to touch the bypass clock source */
            alt_clrbits_word(ALT_CLKMGR_BYPASS_ADDR, ALT_CLKMGR_BYPASS_SDRPLLSRC_SET_MSK);
  1012fc:	e3043004 	movw	r3, #16388	; 0x4004
  101300:	e34f3fd0 	movt	r3, #65488	; 0xffd0
  101304:	e3042004 	movw	r2, #16388	; 0x4004
  101308:	e34f2fd0 	movt	r2, #65488	; 0xffd0
  10130c:	e5922000 	ldr	r2, [r2]
  101310:	e3c22004 	bic	r2, r2, #4
  101314:	e5832000 	str	r2, [r3]
            status = alt_clk_plls_settle_wait();
  101318:	ebfffdf6 	bl	100af8 <alt_clk_plls_settle_wait>
  10131c:	e50b0008 	str	r0, [fp, #-8]
  101320:	ea000001 	b	10132c <alt_clk_pll_bypass_disable+0x3ac>
        }
    }
    else
    {
        status = ALT_E_ERROR;
  101324:	e3e03000 	mvn	r3, #0
  101328:	e50b3008 	str	r3, [fp, #-8]
    }

    return status;
  10132c:	e51b3008 	ldr	r3, [fp, #-8]
}
  101330:	e1a00003 	mov	r0, r3
  101334:	e24bd004 	sub	sp, fp, #4
  101338:	e8bd8800 	pop	{fp, pc}

0010133c <alt_clk_pll_bypass_enable>:
/****************************************************************************************/
/* alt_clk_pll_bypass_enable() enable bypass mode for the specified PLL.                */
/****************************************************************************************/

ALT_STATUS_CODE alt_clk_pll_bypass_enable(ALT_CLK_t pll, bool use_input_mux)
{
  10133c:	e92d4800 	push	{fp, lr}
  101340:	e28db004 	add	fp, sp, #4
  101344:	e24dd018 	sub	sp, sp, #24
  101348:	e1a03000 	mov	r3, r0
  10134c:	e1a02001 	mov	r2, r1
  101350:	e54b3015 	strb	r3, [fp, #-21]	; 0xffffffeb
  101354:	e1a03002 	mov	r3, r2
  101358:	e54b3016 	strb	r3, [fp, #-22]	; 0xffffffea
    ALT_STATUS_CODE status = ALT_E_BAD_ARG;
  10135c:	e3e03008 	mvn	r3, #8
  101360:	e50b3008 	str	r3, [fp, #-8]
    uint32_t        temp;
#ifdef  ALT_PREVENT_GLITCH_BYP
    uint32_t        temp1;
    bool            restore_0 = false;
  101364:	e3a03000 	mov	r3, #0
  101368:	e54b300d 	strb	r3, [fp, #-13]
    bool            restore_1 = false;
  10136c:	e3a03000 	mov	r3, #0
  101370:	e54b300e 	strb	r3, [fp, #-14]
#endif

    if (pll == ALT_CLK_MAIN_PLL)
  101374:	e55b3015 	ldrb	r3, [fp, #-21]	; 0xffffffeb
  101378:	e3530009 	cmp	r3, #9
  10137c:	1a000051 	bne	1014c8 <alt_clk_pll_bypass_enable+0x18c>
    {
        if (!use_input_mux)
  101380:	e55b3016 	ldrb	r3, [fp, #-22]	; 0xffffffea
  101384:	e2233001 	eor	r3, r3, #1
  101388:	e6ef3073 	uxtb	r3, r3
  10138c:	e3530000 	cmp	r3, #0
  101390:	0a000049 	beq	1014bc <alt_clk_pll_bypass_enable+0x180>
        {
#ifdef  ALT_PREVENT_GLITCH_BYP
            /* if L4MP or L4SP source is set to Main PLL C1, gate it off before changing */
            /* bypass state, then gate clock back on. FogBugz #63778 */
            temp  = alt_read_word(ALT_CLKMGR_MAINPLL_L4SRC_ADDR);
  101394:	e3043070 	movw	r3, #16496	; 0x4070
  101398:	e34f3fd0 	movt	r3, #65488	; 0xffd0
  10139c:	e5933000 	ldr	r3, [r3]
  1013a0:	e50b300c 	str	r3, [fp, #-12]
            temp1 = alt_read_word(ALT_CLKMGR_MAINPLL_EN_ADDR);
  1013a4:	e3043060 	movw	r3, #16480	; 0x4060
  1013a8:	e34f3fd0 	movt	r3, #65488	; 0xffd0
  1013ac:	e5933000 	ldr	r3, [r3]
  1013b0:	e50b3014 	str	r3, [fp, #-20]	; 0xffffffec

            if ((temp1 & ALT_CLKMGR_MAINPLL_EN_L4MPCLK_SET_MSK) && (!(temp & ALT_CLKMGR_MAINPLL_L4SRC_L4MP_SET_MSK)))
  1013b4:	e51b3014 	ldr	r3, [fp, #-20]	; 0xffffffec
  1013b8:	e2033004 	and	r3, r3, #4
  1013bc:	e3530000 	cmp	r3, #0
  1013c0:	0a000005 	beq	1013dc <alt_clk_pll_bypass_enable+0xa0>
  1013c4:	e51b300c 	ldr	r3, [fp, #-12]
  1013c8:	e2033001 	and	r3, r3, #1
  1013cc:	e3530000 	cmp	r3, #0
  1013d0:	1a000001 	bne	1013dc <alt_clk_pll_bypass_enable+0xa0>
            {
                restore_0 = true;
  1013d4:	e3a03001 	mov	r3, #1
  1013d8:	e54b300d 	strb	r3, [fp, #-13]
            }
            if ((temp1 & ALT_CLKMGR_MAINPLL_EN_L4SPCLK_SET_MSK) && (!(temp & ALT_CLKMGR_MAINPLL_L4SRC_L4SP_SET_MSK)))
  1013dc:	e51b3014 	ldr	r3, [fp, #-20]	; 0xffffffec
  1013e0:	e2033008 	and	r3, r3, #8
  1013e4:	e3530000 	cmp	r3, #0
  1013e8:	0a000005 	beq	101404 <alt_clk_pll_bypass_enable+0xc8>
  1013ec:	e51b300c 	ldr	r3, [fp, #-12]
  1013f0:	e2033002 	and	r3, r3, #2
  1013f4:	e3530000 	cmp	r3, #0
  1013f8:	1a000001 	bne	101404 <alt_clk_pll_bypass_enable+0xc8>
            {
                restore_1 = true;
  1013fc:	e3a03001 	mov	r3, #1
  101400:	e54b300e 	strb	r3, [fp, #-14]
            }
            temp = temp1;
  101404:	e51b3014 	ldr	r3, [fp, #-20]	; 0xffffffec
  101408:	e50b300c 	str	r3, [fp, #-12]
            if (restore_0) { temp &= ALT_CLKMGR_MAINPLL_EN_L4MPCLK_CLR_MSK; }
  10140c:	e55b300d 	ldrb	r3, [fp, #-13]
  101410:	e3530000 	cmp	r3, #0
  101414:	0a000002 	beq	101424 <alt_clk_pll_bypass_enable+0xe8>
  101418:	e51b300c 	ldr	r3, [fp, #-12]
  10141c:	e3c33004 	bic	r3, r3, #4
  101420:	e50b300c 	str	r3, [fp, #-12]
            if (restore_1) { temp &= ALT_CLKMGR_MAINPLL_EN_L4SPCLK_CLR_MSK; }
  101424:	e55b300e 	ldrb	r3, [fp, #-14]
  101428:	e3530000 	cmp	r3, #0
  10142c:	0a000002 	beq	10143c <alt_clk_pll_bypass_enable+0x100>
  101430:	e51b300c 	ldr	r3, [fp, #-12]
  101434:	e3c33008 	bic	r3, r3, #8
  101438:	e50b300c 	str	r3, [fp, #-12]
            if (restore_0 || restore_1) { alt_write_word(ALT_CLKMGR_MAINPLL_EN_ADDR, temp); }
  10143c:	e55b300d 	ldrb	r3, [fp, #-13]
  101440:	e3530000 	cmp	r3, #0
  101444:	1a000002 	bne	101454 <alt_clk_pll_bypass_enable+0x118>
  101448:	e55b300e 	ldrb	r3, [fp, #-14]
  10144c:	e3530000 	cmp	r3, #0
  101450:	0a000003 	beq	101464 <alt_clk_pll_bypass_enable+0x128>
  101454:	e3043060 	movw	r3, #16480	; 0x4060
  101458:	e34f3fd0 	movt	r3, #65488	; 0xffd0
  10145c:	e51b200c 	ldr	r2, [fp, #-12]
  101460:	e5832000 	str	r2, [r3]

            alt_setbits_word(ALT_CLKMGR_BYPASS_ADDR, ALT_CLKMGR_BYPASS_MAINPLL_SET_MSK);
  101464:	e3043004 	movw	r3, #16388	; 0x4004
  101468:	e34f3fd0 	movt	r3, #65488	; 0xffd0
  10146c:	e3042004 	movw	r2, #16388	; 0x4004
  101470:	e34f2fd0 	movt	r2, #65488	; 0xffd0
  101474:	e5922000 	ldr	r2, [r2]
  101478:	e3822001 	orr	r2, r2, #1
  10147c:	e5832000 	str	r2, [r3]
                        /* no input mux select on main PLL */

            status = alt_clk_plls_settle_wait();
  101480:	ebfffd9c 	bl	100af8 <alt_clk_plls_settle_wait>
  101484:	e50b0008 	str	r0, [fp, #-8]
                        /* wait before reenabling the L4MP and L4SP clocks */
            if (restore_0 || restore_1) { alt_write_word(ALT_CLKMGR_MAINPLL_EN_ADDR, temp1); }
  101488:	e55b300d 	ldrb	r3, [fp, #-13]
  10148c:	e3530000 	cmp	r3, #0
  101490:	1a000002 	bne	1014a0 <alt_clk_pll_bypass_enable+0x164>
  101494:	e55b300e 	ldrb	r3, [fp, #-14]
  101498:	e3530000 	cmp	r3, #0
  10149c:	0a000003 	beq	1014b0 <alt_clk_pll_bypass_enable+0x174>
  1014a0:	e3043060 	movw	r3, #16480	; 0x4060
  1014a4:	e34f3fd0 	movt	r3, #65488	; 0xffd0
  1014a8:	e51b2014 	ldr	r2, [fp, #-20]	; 0xffffffec
  1014ac:	e5832000 	str	r2, [r3]
            alt_setbits_word(ALT_CLKMGR_BYPASS_ADDR, ALT_CLKMGR_BYPASS_MAINPLL_SET_MSK);
                        /* no input mux select on main PLL */
            status = alt_clk_plls_settle_wait();

#endif
            status = ALT_E_SUCCESS;
  1014b0:	e3a03000 	mov	r3, #0
  1014b4:	e50b3008 	str	r3, [fp, #-8]
  1014b8:	ea000073 	b	10168c <alt_clk_pll_bypass_enable+0x350>
        }
        else
        {
            status =  ALT_E_BAD_ARG;
  1014bc:	e3e03008 	mvn	r3, #8
  1014c0:	e50b3008 	str	r3, [fp, #-8]
  1014c4:	ea000070 	b	10168c <alt_clk_pll_bypass_enable+0x350>
        }
    }
    else if (pll == ALT_CLK_PERIPHERAL_PLL)
  1014c8:	e55b3015 	ldrb	r3, [fp, #-21]	; 0xffffffeb
  1014cc:	e353000a 	cmp	r3, #10
  1014d0:	1a000056 	bne	101630 <alt_clk_pll_bypass_enable+0x2f4>
    {
#ifdef  ALT_PREVENT_GLITCH_BYP
        /* if L4MP or L4SP source is set to Peripheral PLL C1, gate it off before changing */
        /* bypass state, then gate clock back on. FogBugz #63778 */
        temp  = alt_read_word(ALT_CLKMGR_MAINPLL_L4SRC_ADDR);
  1014d4:	e3043070 	movw	r3, #16496	; 0x4070
  1014d8:	e34f3fd0 	movt	r3, #65488	; 0xffd0
  1014dc:	e5933000 	ldr	r3, [r3]
  1014e0:	e50b300c 	str	r3, [fp, #-12]
        temp1 = alt_read_word(ALT_CLKMGR_MAINPLL_EN_ADDR);
  1014e4:	e3043060 	movw	r3, #16480	; 0x4060
  1014e8:	e34f3fd0 	movt	r3, #65488	; 0xffd0
  1014ec:	e5933000 	ldr	r3, [r3]
  1014f0:	e50b3014 	str	r3, [fp, #-20]	; 0xffffffec

        if ((temp1 & ALT_CLKMGR_MAINPLL_EN_L4MPCLK_SET_MSK) && (temp & ALT_CLKMGR_MAINPLL_L4SRC_L4MP_SET_MSK))
  1014f4:	e51b3014 	ldr	r3, [fp, #-20]	; 0xffffffec
  1014f8:	e2033004 	and	r3, r3, #4
  1014fc:	e3530000 	cmp	r3, #0
  101500:	0a000005 	beq	10151c <alt_clk_pll_bypass_enable+0x1e0>
  101504:	e51b300c 	ldr	r3, [fp, #-12]
  101508:	e2033001 	and	r3, r3, #1
  10150c:	e3530000 	cmp	r3, #0
  101510:	0a000001 	beq	10151c <alt_clk_pll_bypass_enable+0x1e0>
        {
            restore_0 = true;
  101514:	e3a03001 	mov	r3, #1
  101518:	e54b300d 	strb	r3, [fp, #-13]
        }
        if ((temp1 & ALT_CLKMGR_MAINPLL_EN_L4SPCLK_SET_MSK) && (temp & ALT_CLKMGR_MAINPLL_L4SRC_L4SP_SET_MSK))
  10151c:	e51b3014 	ldr	r3, [fp, #-20]	; 0xffffffec
  101520:	e2033008 	and	r3, r3, #8
  101524:	e3530000 	cmp	r3, #0
  101528:	0a000005 	beq	101544 <alt_clk_pll_bypass_enable+0x208>
  10152c:	e51b300c 	ldr	r3, [fp, #-12]
  101530:	e2033002 	and	r3, r3, #2
  101534:	e3530000 	cmp	r3, #0
  101538:	0a000001 	beq	101544 <alt_clk_pll_bypass_enable+0x208>
        {
            restore_1 = true;
  10153c:	e3a03001 	mov	r3, #1
  101540:	e54b300e 	strb	r3, [fp, #-14]
        }
        temp = temp1;
  101544:	e51b3014 	ldr	r3, [fp, #-20]	; 0xffffffec
  101548:	e50b300c 	str	r3, [fp, #-12]
        if (restore_0) { temp &= ALT_CLKMGR_MAINPLL_EN_L4MPCLK_CLR_MSK; }
  10154c:	e55b300d 	ldrb	r3, [fp, #-13]
  101550:	e3530000 	cmp	r3, #0
  101554:	0a000002 	beq	101564 <alt_clk_pll_bypass_enable+0x228>
  101558:	e51b300c 	ldr	r3, [fp, #-12]
  10155c:	e3c33004 	bic	r3, r3, #4
  101560:	e50b300c 	str	r3, [fp, #-12]
        if (restore_1) { temp &= ALT_CLKMGR_MAINPLL_EN_L4SPCLK_CLR_MSK; }
  101564:	e55b300e 	ldrb	r3, [fp, #-14]
  101568:	e3530000 	cmp	r3, #0
  10156c:	0a000002 	beq	10157c <alt_clk_pll_bypass_enable+0x240>
  101570:	e51b300c 	ldr	r3, [fp, #-12]
  101574:	e3c33008 	bic	r3, r3, #8
  101578:	e50b300c 	str	r3, [fp, #-12]
        if (restore_0 || restore_1) { alt_write_word(ALT_CLKMGR_MAINPLL_EN_ADDR, temp); }
  10157c:	e55b300d 	ldrb	r3, [fp, #-13]
  101580:	e3530000 	cmp	r3, #0
  101584:	1a000002 	bne	101594 <alt_clk_pll_bypass_enable+0x258>
  101588:	e55b300e 	ldrb	r3, [fp, #-14]
  10158c:	e3530000 	cmp	r3, #0
  101590:	0a000003 	beq	1015a4 <alt_clk_pll_bypass_enable+0x268>
  101594:	e3043060 	movw	r3, #16480	; 0x4060
  101598:	e34f3fd0 	movt	r3, #65488	; 0xffd0
  10159c:	e51b200c 	ldr	r2, [fp, #-12]
  1015a0:	e5832000 	str	r2, [r3]

        temp = alt_read_word(ALT_CLKMGR_BYPASS_ADDR) &
  1015a4:	e3043004 	movw	r3, #16388	; 0x4004
  1015a8:	e34f3fd0 	movt	r3, #65488	; 0xffd0
  1015ac:	e5933000 	ldr	r3, [r3]
  1015b0:	e3c33018 	bic	r3, r3, #24
  1015b4:	e50b300c 	str	r3, [fp, #-12]
                (ALT_CLKMGR_BYPASS_PERPLL_CLR_MSK & ALT_CLKMGR_BYPASS_PERPLLSRC_CLR_MSK);
        temp |= (use_input_mux) ? ALT_CLKMGR_BYPASS_PERPLL_SET_MSK |
  1015b8:	e55b3016 	ldrb	r3, [fp, #-22]	; 0xffffffea
  1015bc:	e3530000 	cmp	r3, #0
  1015c0:	0a000001 	beq	1015cc <alt_clk_pll_bypass_enable+0x290>
  1015c4:	e3a03018 	mov	r3, #24
  1015c8:	ea000000 	b	1015d0 <alt_clk_pll_bypass_enable+0x294>
  1015cc:	e3a03008 	mov	r3, #8
  1015d0:	e51b200c 	ldr	r2, [fp, #-12]
  1015d4:	e1823003 	orr	r3, r2, r3
  1015d8:	e50b300c 	str	r3, [fp, #-12]
                ALT_CLKMGR_BYPASS_PERPLLSRC_SET_MSK : ALT_CLKMGR_BYPASS_PERPLL_SET_MSK;
                    /* set bypass bit and optionally the source select bit */

        alt_write_word(ALT_CLKMGR_BYPASS_ADDR, temp);
  1015dc:	e3043004 	movw	r3, #16388	; 0x4004
  1015e0:	e34f3fd0 	movt	r3, #65488	; 0xffd0
  1015e4:	e51b200c 	ldr	r2, [fp, #-12]
  1015e8:	e5832000 	str	r2, [r3]
        alt_clk_mgr_wait(ALT_CLKMGR_MAINPLL_EN_ADDR, ALT_SW_MANAGED_CLK_WAIT_CTRDIV);
  1015ec:	e3a0101e 	mov	r1, #30
  1015f0:	e3040060 	movw	r0, #16480	; 0x4060
  1015f4:	e34f0fd0 	movt	r0, #65488	; 0xffd0
  1015f8:	ebfffd2c 	bl	100ab0 <alt_clk_mgr_wait>
                    /* wait a bit before reenabling the L4MP and L4SP clocks */
        if (restore_0 || restore_1) { alt_write_word(ALT_CLKMGR_MAINPLL_EN_ADDR, temp1); }
  1015fc:	e55b300d 	ldrb	r3, [fp, #-13]
  101600:	e3530000 	cmp	r3, #0
  101604:	1a000002 	bne	101614 <alt_clk_pll_bypass_enable+0x2d8>
  101608:	e55b300e 	ldrb	r3, [fp, #-14]
  10160c:	e3530000 	cmp	r3, #0
  101610:	0a000003 	beq	101624 <alt_clk_pll_bypass_enable+0x2e8>
  101614:	e3043060 	movw	r3, #16480	; 0x4060
  101618:	e34f3fd0 	movt	r3, #65488	; 0xffd0
  10161c:	e51b2014 	ldr	r2, [fp, #-20]	; 0xffffffec
  101620:	e5832000 	str	r2, [r3]
                (ALT_CLKMGR_BYPASS_PERPLL_CLR_MSK & ALT_CLKMGR_BYPASS_PERPLLSRC_CLR_MSK);
        temp |= (use_input_mux) ? ALT_CLKMGR_BYPASS_PERPLL_SET_MSK |
                ALT_CLKMGR_BYPASS_PERPLLSRC_SET_MSK : ALT_CLKMGR_BYPASS_PERPLL_SET_MSK;
                    /* set bypass bit and optionally the source select bit */
#endif
        status = ALT_E_SUCCESS;
  101624:	e3a03000 	mov	r3, #0
  101628:	e50b3008 	str	r3, [fp, #-8]
  10162c:	ea000016 	b	10168c <alt_clk_pll_bypass_enable+0x350>
    }

    else if (pll == ALT_CLK_SDRAM_PLL)
  101630:	e55b3015 	ldrb	r3, [fp, #-21]	; 0xffffffeb
  101634:	e353000b 	cmp	r3, #11
  101638:	1a000013 	bne	10168c <alt_clk_pll_bypass_enable+0x350>
    {
        temp = alt_read_word(ALT_CLKMGR_BYPASS_ADDR) &
  10163c:	e3043004 	movw	r3, #16388	; 0x4004
  101640:	e34f3fd0 	movt	r3, #65488	; 0xffd0
  101644:	e5933000 	ldr	r3, [r3]
  101648:	e3c33006 	bic	r3, r3, #6
  10164c:	e50b300c 	str	r3, [fp, #-12]
                (ALT_CLKMGR_BYPASS_SDRPLL_CLR_MSK & ALT_CLKMGR_BYPASS_SDRPLLSRC_CLR_MSK);
        temp |= (use_input_mux) ? ALT_CLKMGR_BYPASS_SDRPLL_SET_MSK |
  101650:	e55b3016 	ldrb	r3, [fp, #-22]	; 0xffffffea
  101654:	e3530000 	cmp	r3, #0
  101658:	0a000001 	beq	101664 <alt_clk_pll_bypass_enable+0x328>
  10165c:	e3a03006 	mov	r3, #6
  101660:	ea000000 	b	101668 <alt_clk_pll_bypass_enable+0x32c>
  101664:	e3a03002 	mov	r3, #2
  101668:	e51b200c 	ldr	r2, [fp, #-12]
  10166c:	e1823003 	orr	r3, r2, r3
  101670:	e50b300c 	str	r3, [fp, #-12]
                ALT_CLKMGR_BYPASS_SDRPLLSRC_SET_MSK : ALT_CLKMGR_BYPASS_SDRPLL_SET_MSK;
                    /* set bypass bit and optionally the source select bit */
        alt_write_word(ALT_CLKMGR_BYPASS_ADDR, temp);
  101674:	e3043004 	movw	r3, #16388	; 0x4004
  101678:	e34f3fd0 	movt	r3, #65488	; 0xffd0
  10167c:	e51b200c 	ldr	r2, [fp, #-12]
  101680:	e5832000 	str	r2, [r3]
        status = ALT_E_SUCCESS;
  101684:	e3a03000 	mov	r3, #0
  101688:	e50b3008 	str	r3, [fp, #-8]
    }
    return status;
  10168c:	e51b3008 	ldr	r3, [fp, #-8]
}
  101690:	e1a00003 	mov	r0, r3
  101694:	e24bd004 	sub	sp, fp, #4
  101698:	e8bd8800 	pop	{fp, pc}

0010169c <alt_clk_pll_is_bypassed>:
/* the PLL VCO must be made in bypass mode to avoid the potential of producing clock    */
/* glitches which may affect downstream clock dividers and peripherals.                 */
/****************************************************************************************/

ALT_STATUS_CODE alt_clk_pll_is_bypassed(ALT_CLK_t pll)
{
  10169c:	e52db004 	push	{fp}		; (str fp, [sp, #-4]!)
  1016a0:	e28db000 	add	fp, sp, #0
  1016a4:	e24dd014 	sub	sp, sp, #20
  1016a8:	e1a03000 	mov	r3, r0
  1016ac:	e54b300d 	strb	r3, [fp, #-13]
    ALT_STATUS_CODE status = ALT_E_BAD_ARG;
  1016b0:	e3e03008 	mvn	r3, #8
  1016b4:	e50b3008 	str	r3, [fp, #-8]

    if (pll == ALT_CLK_MAIN_PLL)
  1016b8:	e55b300d 	ldrb	r3, [fp, #-13]
  1016bc:	e3530009 	cmp	r3, #9
  1016c0:	1a000010 	bne	101708 <alt_clk_pll_is_bypassed+0x6c>
    {
        status = (ALT_CLKMGR_CTL_SAFEMOD_GET(alt_read_word(ALT_CLKMGR_CTL_ADDR))
  1016c4:	e3a03901 	mov	r3, #16384	; 0x4000
  1016c8:	e34f3fd0 	movt	r3, #65488	; 0xffd0
  1016cc:	e5933000 	ldr	r3, [r3]
  1016d0:	e2033001 	and	r3, r3, #1
  1016d4:	e3530000 	cmp	r3, #0
  1016d8:	1a000005 	bne	1016f4 <alt_clk_pll_is_bypassed+0x58>
                || ALT_CLKMGR_BYPASS_MAINPLL_GET(alt_read_word(ALT_CLKMGR_BYPASS_ADDR)))
  1016dc:	e3043004 	movw	r3, #16388	; 0x4004
  1016e0:	e34f3fd0 	movt	r3, #65488	; 0xffd0
  1016e4:	e5933000 	ldr	r3, [r3]
  1016e8:	e2033001 	and	r3, r3, #1
                ? ALT_E_TRUE : ALT_E_FALSE;
  1016ec:	e3530000 	cmp	r3, #0
  1016f0:	0a000001 	beq	1016fc <alt_clk_pll_is_bypassed+0x60>
{
    ALT_STATUS_CODE status = ALT_E_BAD_ARG;

    if (pll == ALT_CLK_MAIN_PLL)
    {
        status = (ALT_CLKMGR_CTL_SAFEMOD_GET(alt_read_word(ALT_CLKMGR_CTL_ADDR))
  1016f4:	e3a03001 	mov	r3, #1
  1016f8:	ea000000 	b	101700 <alt_clk_pll_is_bypassed+0x64>
  1016fc:	e3a03000 	mov	r3, #0
  101700:	e50b3008 	str	r3, [fp, #-8]
  101704:	ea000028 	b	1017ac <alt_clk_pll_is_bypassed+0x110>
                || ALT_CLKMGR_BYPASS_MAINPLL_GET(alt_read_word(ALT_CLKMGR_BYPASS_ADDR)))
                ? ALT_E_TRUE : ALT_E_FALSE;
    }
    else if (pll == ALT_CLK_PERIPHERAL_PLL)
  101708:	e55b300d 	ldrb	r3, [fp, #-13]
  10170c:	e353000a 	cmp	r3, #10
  101710:	1a000011 	bne	10175c <alt_clk_pll_is_bypassed+0xc0>
    {
        status = (ALT_CLKMGR_CTL_SAFEMOD_GET(alt_read_word(ALT_CLKMGR_CTL_ADDR))
  101714:	e3a03901 	mov	r3, #16384	; 0x4000
  101718:	e34f3fd0 	movt	r3, #65488	; 0xffd0
  10171c:	e5933000 	ldr	r3, [r3]
  101720:	e2033001 	and	r3, r3, #1
  101724:	e3530000 	cmp	r3, #0
  101728:	1a000006 	bne	101748 <alt_clk_pll_is_bypassed+0xac>
                || ALT_CLKMGR_BYPASS_PERPLL_GET(alt_read_word(ALT_CLKMGR_BYPASS_ADDR)))
  10172c:	e3043004 	movw	r3, #16388	; 0x4004
  101730:	e34f3fd0 	movt	r3, #65488	; 0xffd0
  101734:	e5933000 	ldr	r3, [r3]
  101738:	e2033008 	and	r3, r3, #8
  10173c:	e1a031a3 	lsr	r3, r3, #3
                ? ALT_E_TRUE : ALT_E_FALSE;
  101740:	e3530000 	cmp	r3, #0
  101744:	0a000001 	beq	101750 <alt_clk_pll_is_bypassed+0xb4>
                || ALT_CLKMGR_BYPASS_MAINPLL_GET(alt_read_word(ALT_CLKMGR_BYPASS_ADDR)))
                ? ALT_E_TRUE : ALT_E_FALSE;
    }
    else if (pll == ALT_CLK_PERIPHERAL_PLL)
    {
        status = (ALT_CLKMGR_CTL_SAFEMOD_GET(alt_read_word(ALT_CLKMGR_CTL_ADDR))
  101748:	e3a03001 	mov	r3, #1
  10174c:	ea000000 	b	101754 <alt_clk_pll_is_bypassed+0xb8>
  101750:	e3a03000 	mov	r3, #0
  101754:	e50b3008 	str	r3, [fp, #-8]
  101758:	ea000013 	b	1017ac <alt_clk_pll_is_bypassed+0x110>
                || ALT_CLKMGR_BYPASS_PERPLL_GET(alt_read_word(ALT_CLKMGR_BYPASS_ADDR)))
                ? ALT_E_TRUE : ALT_E_FALSE;
    }
    else if (pll == ALT_CLK_SDRAM_PLL)
  10175c:	e55b300d 	ldrb	r3, [fp, #-13]
  101760:	e353000b 	cmp	r3, #11
  101764:	1a000010 	bne	1017ac <alt_clk_pll_is_bypassed+0x110>
    {
        status = (ALT_CLKMGR_CTL_SAFEMOD_GET(alt_read_word(ALT_CLKMGR_CTL_ADDR))
  101768:	e3a03901 	mov	r3, #16384	; 0x4000
  10176c:	e34f3fd0 	movt	r3, #65488	; 0xffd0
  101770:	e5933000 	ldr	r3, [r3]
  101774:	e2033001 	and	r3, r3, #1
  101778:	e3530000 	cmp	r3, #0
  10177c:	1a000006 	bne	10179c <alt_clk_pll_is_bypassed+0x100>
                || ALT_CLKMGR_BYPASS_SDRPLL_GET(alt_read_word(ALT_CLKMGR_BYPASS_ADDR)))
  101780:	e3043004 	movw	r3, #16388	; 0x4004
  101784:	e34f3fd0 	movt	r3, #65488	; 0xffd0
  101788:	e5933000 	ldr	r3, [r3]
  10178c:	e2033002 	and	r3, r3, #2
  101790:	e1a030a3 	lsr	r3, r3, #1
                ? ALT_E_TRUE : ALT_E_FALSE;
  101794:	e3530000 	cmp	r3, #0
  101798:	0a000001 	beq	1017a4 <alt_clk_pll_is_bypassed+0x108>
                || ALT_CLKMGR_BYPASS_PERPLL_GET(alt_read_word(ALT_CLKMGR_BYPASS_ADDR)))
                ? ALT_E_TRUE : ALT_E_FALSE;
    }
    else if (pll == ALT_CLK_SDRAM_PLL)
    {
        status = (ALT_CLKMGR_CTL_SAFEMOD_GET(alt_read_word(ALT_CLKMGR_CTL_ADDR))
  10179c:	e3a03001 	mov	r3, #1
  1017a0:	ea000000 	b	1017a8 <alt_clk_pll_is_bypassed+0x10c>
  1017a4:	e3a03000 	mov	r3, #0
  1017a8:	e50b3008 	str	r3, [fp, #-8]
                || ALT_CLKMGR_BYPASS_SDRPLL_GET(alt_read_word(ALT_CLKMGR_BYPASS_ADDR)))
                ? ALT_E_TRUE : ALT_E_FALSE;
    }
    return status;
  1017ac:	e51b3008 	ldr	r3, [fp, #-8]
}
  1017b0:	e1a00003 	mov	r0, r3
  1017b4:	e24bd000 	sub	sp, fp, #0
  1017b8:	e49db004 	pop	{fp}		; (ldr fp, [sp], #4)
  1017bc:	e12fff1e 	bx	lr

001017c0 <alt_clk_pll_source_get>:
/****************************************************************************************/
/* alt_clk_pll_source_get() returns the current input of the specified PLL.             */
/****************************************************************************************/

ALT_CLK_t alt_clk_pll_source_get(ALT_CLK_t pll)
{
  1017c0:	e52db004 	push	{fp}		; (str fp, [sp, #-4]!)
  1017c4:	e28db000 	add	fp, sp, #0
  1017c8:	e24dd014 	sub	sp, sp, #20
  1017cc:	e1a03000 	mov	r3, r0
  1017d0:	e54b300d 	strb	r3, [fp, #-13]
    ALT_CLK_t      ret = ALT_CLK_UNKNOWN;
  1017d4:	e3a0304b 	mov	r3, #75	; 0x4b
  1017d8:	e54b3005 	strb	r3, [fp, #-5]
    uint32_t       temp;


    if (pll == ALT_CLK_MAIN_PLL)
  1017dc:	e55b300d 	ldrb	r3, [fp, #-13]
  1017e0:	e3530009 	cmp	r3, #9
  1017e4:	1a000002 	bne	1017f4 <alt_clk_pll_source_get+0x34>
    {
        ret = ALT_CLK_IN_PIN_OSC1;
  1017e8:	e3a03000 	mov	r3, #0
  1017ec:	e54b3005 	strb	r3, [fp, #-5]
  1017f0:	ea000034 	b	1018c8 <alt_clk_pll_source_get+0x108>
    }
    else if (pll == ALT_CLK_PERIPHERAL_PLL)
  1017f4:	e55b300d 	ldrb	r3, [fp, #-13]
  1017f8:	e353000a 	cmp	r3, #10
  1017fc:	1a000017 	bne	101860 <alt_clk_pll_source_get+0xa0>
    {
        /* three possible clock sources for the peripheral PLL */
        temp = ALT_CLKMGR_PERPLL_VCO_PSRC_GET(alt_read_word(ALT_CLKMGR_PERPLL_VCO_ADDR));
  101800:	e3043080 	movw	r3, #16512	; 0x4080
  101804:	e34f3fd0 	movt	r3, #65488	; 0xffd0
  101808:	e5933000 	ldr	r3, [r3]
  10180c:	e2033503 	and	r3, r3, #12582912	; 0xc00000
  101810:	e1a03b23 	lsr	r3, r3, #22
  101814:	e50b300c 	str	r3, [fp, #-12]
        if (temp == ALT_CLKMGR_PERPLL_VCO_PSRC_E_EOSC1)
  101818:	e51b300c 	ldr	r3, [fp, #-12]
  10181c:	e3530000 	cmp	r3, #0
  101820:	1a000002 	bne	101830 <alt_clk_pll_source_get+0x70>
        {
            ret = ALT_CLK_IN_PIN_OSC1;
  101824:	e3a03000 	mov	r3, #0
  101828:	e54b3005 	strb	r3, [fp, #-5]
  10182c:	ea000025 	b	1018c8 <alt_clk_pll_source_get+0x108>
        }
        else if (temp == ALT_CLKMGR_PERPLL_VCO_PSRC_E_EOSC2)
  101830:	e51b300c 	ldr	r3, [fp, #-12]
  101834:	e3530001 	cmp	r3, #1
  101838:	1a000002 	bne	101848 <alt_clk_pll_source_get+0x88>
        {
            ret = ALT_CLK_IN_PIN_OSC2;
  10183c:	e3a03001 	mov	r3, #1
  101840:	e54b3005 	strb	r3, [fp, #-5]
  101844:	ea00001f 	b	1018c8 <alt_clk_pll_source_get+0x108>
        }
        else if (temp == ALT_CLKMGR_PERPLL_VCO_PSRC_E_F2S_PERIPH_REF)
  101848:	e51b300c 	ldr	r3, [fp, #-12]
  10184c:	e3530002 	cmp	r3, #2
  101850:	1a00001c 	bne	1018c8 <alt_clk_pll_source_get+0x108>
        {
            ret = ALT_CLK_F2H_PERIPH_REF;
  101854:	e3a03002 	mov	r3, #2
  101858:	e54b3005 	strb	r3, [fp, #-5]
  10185c:	ea000019 	b	1018c8 <alt_clk_pll_source_get+0x108>
        }
    }
    else if (pll == ALT_CLK_SDRAM_PLL)
  101860:	e55b300d 	ldrb	r3, [fp, #-13]
  101864:	e353000b 	cmp	r3, #11
  101868:	1a000016 	bne	1018c8 <alt_clk_pll_source_get+0x108>
    {
        /* three possible clock sources for the SDRAM PLL */
        temp = ALT_CLKMGR_SDRPLL_VCO_SSRC_GET(alt_read_word(ALT_CLKMGR_SDRPLL_VCO_ADDR));
  10186c:	e30430c0 	movw	r3, #16576	; 0x40c0
  101870:	e34f3fd0 	movt	r3, #65488	; 0xffd0
  101874:	e5933000 	ldr	r3, [r3]
  101878:	e2033503 	and	r3, r3, #12582912	; 0xc00000
  10187c:	e1a03b23 	lsr	r3, r3, #22
  101880:	e50b300c 	str	r3, [fp, #-12]
        if (temp == ALT_CLKMGR_SDRPLL_VCO_SSRC_E_EOSC1)
  101884:	e51b300c 	ldr	r3, [fp, #-12]
  101888:	e3530000 	cmp	r3, #0
  10188c:	1a000002 	bne	10189c <alt_clk_pll_source_get+0xdc>
        {
            ret = ALT_CLK_IN_PIN_OSC1;
  101890:	e3a03000 	mov	r3, #0
  101894:	e54b3005 	strb	r3, [fp, #-5]
  101898:	ea00000a 	b	1018c8 <alt_clk_pll_source_get+0x108>
        }
        else if (temp == ALT_CLKMGR_SDRPLL_VCO_SSRC_E_EOSC2)
  10189c:	e51b300c 	ldr	r3, [fp, #-12]
  1018a0:	e3530001 	cmp	r3, #1
  1018a4:	1a000002 	bne	1018b4 <alt_clk_pll_source_get+0xf4>
        {
            ret = ALT_CLK_IN_PIN_OSC2;
  1018a8:	e3a03001 	mov	r3, #1
  1018ac:	e54b3005 	strb	r3, [fp, #-5]
  1018b0:	ea000004 	b	1018c8 <alt_clk_pll_source_get+0x108>
        }
        else if (temp == ALT_CLKMGR_SDRPLL_VCO_SSRC_E_F2S_SDRAM_REF)
  1018b4:	e51b300c 	ldr	r3, [fp, #-12]
  1018b8:	e3530002 	cmp	r3, #2
  1018bc:	1a000001 	bne	1018c8 <alt_clk_pll_source_get+0x108>
        {
            ret = ALT_CLK_F2H_SDRAM_REF;
  1018c0:	e3a03003 	mov	r3, #3
  1018c4:	e54b3005 	strb	r3, [fp, #-5]
        }
    }
    return ret;
  1018c8:	e55b3005 	ldrb	r3, [fp, #-5]
}
  1018cc:	e1a00003 	mov	r0, r3
  1018d0:	e24bd000 	sub	sp, fp, #0
  1018d4:	e49db004 	pop	{fp}		; (ldr fp, [sp], #4)
  1018d8:	e12fff1e 	bx	lr

001018dc <alt_clk_clock_disable>:
/*
// alt_clk_clock_disable() disables the specified clock. Once the clock is disabled,
// its clock signal does not propagate to its clocked elements.
*/
ALT_STATUS_CODE alt_clk_clock_disable(ALT_CLK_t clk)
{
  1018dc:	e92d4800 	push	{fp, lr}
  1018e0:	e28db004 	add	fp, sp, #4
  1018e4:	e24dd010 	sub	sp, sp, #16
  1018e8:	e1a03000 	mov	r3, r0
  1018ec:	e54b300d 	strb	r3, [fp, #-13]
    ALT_STATUS_CODE status = ALT_E_SUCCESS;
  1018f0:	e3a03000 	mov	r3, #0
  1018f4:	e50b3008 	str	r3, [fp, #-8]

    switch (clk)
  1018f8:	e55b300d 	ldrb	r3, [fp, #-13]
  1018fc:	e2433009 	sub	r3, r3, #9
  101900:	e3530037 	cmp	r3, #55	; 0x37
  101904:	979ff103 	ldrls	pc, [pc, r3, lsl #2]
  101908:	ea000118 	b	101d70 <alt_clk_clock_disable+0x494>
  10190c:	001019ec 	andseq	r1, r0, ip, ror #19
  101910:	001019ec 	andseq	r1, r0, ip, ror #19
  101914:	001019ec 	andseq	r1, r0, ip, ror #19
  101918:	00101d70 	andseq	r1, r0, r0, ror sp
  10191c:	00101d70 	andseq	r1, r0, r0, ror sp
  101920:	00101d70 	andseq	r1, r0, r0, ror sp
  101924:	00101d70 	andseq	r1, r0, r0, ror sp
  101928:	00101d70 	andseq	r1, r0, r0, ror sp
  10192c:	00101d70 	andseq	r1, r0, r0, ror sp
  101930:	00101d70 	andseq	r1, r0, r0, ror sp
  101934:	00101d70 	andseq	r1, r0, r0, ror sp
  101938:	00101d70 	andseq	r1, r0, r0, ror sp
  10193c:	00101d70 	andseq	r1, r0, r0, ror sp
  101940:	00101d70 	andseq	r1, r0, r0, ror sp
  101944:	00101a24 	andseq	r1, r0, r4, lsr #20
  101948:	00101d70 	andseq	r1, r0, r0, ror sp
  10194c:	00101a04 	andseq	r1, r0, r4, lsl #20
  101950:	00101a44 	andseq	r1, r0, r4, asr #20
  101954:	00101a64 	andseq	r1, r0, r4, ror #20
  101958:	00101d70 	andseq	r1, r0, r0, ror sp
  10195c:	00101a84 	andseq	r1, r0, r4, lsl #21
  101960:	00101ac4 	andseq	r1, r0, r4, asr #21
  101964:	00101ae4 	andseq	r1, r0, r4, ror #21
  101968:	00101aa4 	andseq	r1, r0, r4, lsr #21
  10196c:	00101d70 	andseq	r1, r0, r0, ror sp
  101970:	00101d70 	andseq	r1, r0, r0, ror sp
  101974:	00101b04 	andseq	r1, r0, r4, lsl #22
  101978:	00101b24 	andseq	r1, r0, r4, lsr #22
  10197c:	00101d70 	andseq	r1, r0, r0, ror sp
  101980:	00101d70 	andseq	r1, r0, r0, ror sp
  101984:	00101d70 	andseq	r1, r0, r0, ror sp
  101988:	00101d70 	andseq	r1, r0, r0, ror sp
  10198c:	00101d70 	andseq	r1, r0, r0, ror sp
  101990:	00101d70 	andseq	r1, r0, r0, ror sp
  101994:	00101b84 	andseq	r1, r0, r4, lsl #23
  101998:	00101ba4 	andseq	r1, r0, r4, lsr #23
  10199c:	00101cd0 			; <UNDEFINED> instruction: 0x00101cd0
  1019a0:	00101c64 	andseq	r1, r0, r4, ror #24
  1019a4:	00101cb0 			; <UNDEFINED> instruction: 0x00101cb0
  1019a8:	00101c44 	andseq	r1, r0, r4, asr #24
  1019ac:	00101b44 	andseq	r1, r0, r4, asr #22
  1019b0:	00101b64 	andseq	r1, r0, r4, ror #22
  1019b4:	00101bc4 	andseq	r1, r0, r4, asr #23
  1019b8:	00101be4 	andseq	r1, r0, r4, ror #23
  1019bc:	00101c04 	andseq	r1, r0, r4, lsl #24
  1019c0:	00101c24 	andseq	r1, r0, r4, lsr #24
  1019c4:	00101d70 	andseq	r1, r0, r0, ror sp
  1019c8:	00101d70 	andseq	r1, r0, r0, ror sp
  1019cc:	00101d70 	andseq	r1, r0, r0, ror sp
  1019d0:	00101d70 	andseq	r1, r0, r0, ror sp
  1019d4:	00101d70 	andseq	r1, r0, r0, ror sp
  1019d8:	00101d70 	andseq	r1, r0, r0, ror sp
  1019dc:	00101cf0 			; <UNDEFINED> instruction: 0x00101cf0
  1019e0:	00101d10 	andseq	r1, r0, r0, lsl sp
  1019e4:	00101d30 	andseq	r1, r0, r0, lsr sp
  1019e8:	00101d50 	andseq	r1, r0, r0, asr sp
    {
        /* For PLLs, put them in bypass mode. */
    case ALT_CLK_MAIN_PLL:
    case ALT_CLK_PERIPHERAL_PLL:
    case ALT_CLK_SDRAM_PLL:
        status = alt_clk_pll_bypass_enable(clk, false);
  1019ec:	e55b300d 	ldrb	r3, [fp, #-13]
  1019f0:	e3a01000 	mov	r1, #0
  1019f4:	e1a00003 	mov	r0, r3
  1019f8:	ebfffe4f 	bl	10133c <alt_clk_pll_bypass_enable>
  1019fc:	e50b0008 	str	r0, [fp, #-8]
        break;
  101a00:	ea0000dd 	b	101d7c <alt_clk_clock_disable+0x4a0>

        /* Clocks that originate at the Main PLL. */
    case ALT_CLK_L4_MAIN:
        alt_clrbits_word(ALT_CLKMGR_MAINPLL_EN_ADDR, ALT_CLKMGR_MAINPLL_EN_L4MAINCLK_SET_MSK);
  101a04:	e3043060 	movw	r3, #16480	; 0x4060
  101a08:	e34f3fd0 	movt	r3, #65488	; 0xffd0
  101a0c:	e3042060 	movw	r2, #16480	; 0x4060
  101a10:	e34f2fd0 	movt	r2, #65488	; 0xffd0
  101a14:	e5922000 	ldr	r2, [r2]
  101a18:	e3c22001 	bic	r2, r2, #1
  101a1c:	e5832000 	str	r2, [r3]
        break;
  101a20:	ea0000d5 	b	101d7c <alt_clk_clock_disable+0x4a0>
    case ALT_CLK_L3_MP:
        alt_clrbits_word(ALT_CLKMGR_MAINPLL_EN_ADDR, ALT_CLKMGR_MAINPLL_EN_L3MPCLK_SET_MSK);
  101a24:	e3043060 	movw	r3, #16480	; 0x4060
  101a28:	e34f3fd0 	movt	r3, #65488	; 0xffd0
  101a2c:	e3042060 	movw	r2, #16480	; 0x4060
  101a30:	e34f2fd0 	movt	r2, #65488	; 0xffd0
  101a34:	e5922000 	ldr	r2, [r2]
  101a38:	e3c22002 	bic	r2, r2, #2
  101a3c:	e5832000 	str	r2, [r3]
        break;
  101a40:	ea0000cd 	b	101d7c <alt_clk_clock_disable+0x4a0>
    case ALT_CLK_L4_MP:
        alt_clrbits_word(ALT_CLKMGR_MAINPLL_EN_ADDR, ALT_CLKMGR_MAINPLL_EN_L4MPCLK_SET_MSK);
  101a44:	e3043060 	movw	r3, #16480	; 0x4060
  101a48:	e34f3fd0 	movt	r3, #65488	; 0xffd0
  101a4c:	e3042060 	movw	r2, #16480	; 0x4060
  101a50:	e34f2fd0 	movt	r2, #65488	; 0xffd0
  101a54:	e5922000 	ldr	r2, [r2]
  101a58:	e3c22004 	bic	r2, r2, #4
  101a5c:	e5832000 	str	r2, [r3]
        break;
  101a60:	ea0000c5 	b	101d7c <alt_clk_clock_disable+0x4a0>
    case ALT_CLK_L4_SP:
        alt_clrbits_word(ALT_CLKMGR_MAINPLL_EN_ADDR, ALT_CLKMGR_MAINPLL_EN_L4SPCLK_SET_MSK);
  101a64:	e3043060 	movw	r3, #16480	; 0x4060
  101a68:	e34f3fd0 	movt	r3, #65488	; 0xffd0
  101a6c:	e3042060 	movw	r2, #16480	; 0x4060
  101a70:	e34f2fd0 	movt	r2, #65488	; 0xffd0
  101a74:	e5922000 	ldr	r2, [r2]
  101a78:	e3c22008 	bic	r2, r2, #8
  101a7c:	e5832000 	str	r2, [r3]
        break;
  101a80:	ea0000bd 	b	101d7c <alt_clk_clock_disable+0x4a0>
    case ALT_CLK_DBG_AT:
        alt_clrbits_word(ALT_CLKMGR_MAINPLL_EN_ADDR, ALT_CLKMGR_MAINPLL_EN_DBGATCLK_SET_MSK);
  101a84:	e3043060 	movw	r3, #16480	; 0x4060
  101a88:	e34f3fd0 	movt	r3, #65488	; 0xffd0
  101a8c:	e3042060 	movw	r2, #16480	; 0x4060
  101a90:	e34f2fd0 	movt	r2, #65488	; 0xffd0
  101a94:	e5922000 	ldr	r2, [r2]
  101a98:	e3c22010 	bic	r2, r2, #16
  101a9c:	e5832000 	str	r2, [r3]
        break;
  101aa0:	ea0000b5 	b	101d7c <alt_clk_clock_disable+0x4a0>
    case ALT_CLK_DBG:
        alt_clrbits_word(ALT_CLKMGR_MAINPLL_EN_ADDR, ALT_CLKMGR_MAINPLL_EN_DBGCLK_SET_MSK);
  101aa4:	e3043060 	movw	r3, #16480	; 0x4060
  101aa8:	e34f3fd0 	movt	r3, #65488	; 0xffd0
  101aac:	e3042060 	movw	r2, #16480	; 0x4060
  101ab0:	e34f2fd0 	movt	r2, #65488	; 0xffd0
  101ab4:	e5922000 	ldr	r2, [r2]
  101ab8:	e3c22020 	bic	r2, r2, #32
  101abc:	e5832000 	str	r2, [r3]
        break;
  101ac0:	ea0000ad 	b	101d7c <alt_clk_clock_disable+0x4a0>
    case ALT_CLK_DBG_TRACE:
        alt_clrbits_word(ALT_CLKMGR_MAINPLL_EN_ADDR, ALT_CLKMGR_MAINPLL_EN_DBGTRACECLK_SET_MSK);
  101ac4:	e3043060 	movw	r3, #16480	; 0x4060
  101ac8:	e34f3fd0 	movt	r3, #65488	; 0xffd0
  101acc:	e3042060 	movw	r2, #16480	; 0x4060
  101ad0:	e34f2fd0 	movt	r2, #65488	; 0xffd0
  101ad4:	e5922000 	ldr	r2, [r2]
  101ad8:	e3c22040 	bic	r2, r2, #64	; 0x40
  101adc:	e5832000 	str	r2, [r3]
        break;
  101ae0:	ea0000a5 	b	101d7c <alt_clk_clock_disable+0x4a0>
    case ALT_CLK_DBG_TIMER:
        alt_clrbits_word(ALT_CLKMGR_MAINPLL_EN_ADDR, ALT_CLKMGR_MAINPLL_EN_DBGTMRCLK_SET_MSK);
  101ae4:	e3043060 	movw	r3, #16480	; 0x4060
  101ae8:	e34f3fd0 	movt	r3, #65488	; 0xffd0
  101aec:	e3042060 	movw	r2, #16480	; 0x4060
  101af0:	e34f2fd0 	movt	r2, #65488	; 0xffd0
  101af4:	e5922000 	ldr	r2, [r2]
  101af8:	e3c22080 	bic	r2, r2, #128	; 0x80
  101afc:	e5832000 	str	r2, [r3]
        break;
  101b00:	ea00009d 	b	101d7c <alt_clk_clock_disable+0x4a0>
    case ALT_CLK_CFG:
        alt_clrbits_word(ALT_CLKMGR_MAINPLL_EN_ADDR, ALT_CLKMGR_MAINPLL_EN_CFGCLK_SET_MSK);
  101b04:	e3043060 	movw	r3, #16480	; 0x4060
  101b08:	e34f3fd0 	movt	r3, #65488	; 0xffd0
  101b0c:	e3042060 	movw	r2, #16480	; 0x4060
  101b10:	e34f2fd0 	movt	r2, #65488	; 0xffd0
  101b14:	e5922000 	ldr	r2, [r2]
  101b18:	e3c22c01 	bic	r2, r2, #256	; 0x100
  101b1c:	e5832000 	str	r2, [r3]
        break;
  101b20:	ea000095 	b	101d7c <alt_clk_clock_disable+0x4a0>
    case ALT_CLK_H2F_USER0:
        alt_clrbits_word(ALT_CLKMGR_MAINPLL_EN_ADDR, ALT_CLKMGR_MAINPLL_EN_S2FUSER0CLK_SET_MSK);
  101b24:	e3043060 	movw	r3, #16480	; 0x4060
  101b28:	e34f3fd0 	movt	r3, #65488	; 0xffd0
  101b2c:	e3042060 	movw	r2, #16480	; 0x4060
  101b30:	e34f2fd0 	movt	r2, #65488	; 0xffd0
  101b34:	e5922000 	ldr	r2, [r2]
  101b38:	e3c22c02 	bic	r2, r2, #512	; 0x200
  101b3c:	e5832000 	str	r2, [r3]
        break;
  101b40:	ea00008d 	b	101d7c <alt_clk_clock_disable+0x4a0>

        /* Clocks that originate at the Peripheral PLL. */
    case ALT_CLK_EMAC0:
        alt_clrbits_word(ALT_CLKMGR_PERPLL_EN_ADDR, ALT_CLKMGR_PERPLL_EN_EMAC0CLK_SET_MSK);
  101b44:	e30430a0 	movw	r3, #16544	; 0x40a0
  101b48:	e34f3fd0 	movt	r3, #65488	; 0xffd0
  101b4c:	e30420a0 	movw	r2, #16544	; 0x40a0
  101b50:	e34f2fd0 	movt	r2, #65488	; 0xffd0
  101b54:	e5922000 	ldr	r2, [r2]
  101b58:	e3c22001 	bic	r2, r2, #1
  101b5c:	e5832000 	str	r2, [r3]
        break;
  101b60:	ea000085 	b	101d7c <alt_clk_clock_disable+0x4a0>
    case ALT_CLK_EMAC1:
        alt_clrbits_word(ALT_CLKMGR_PERPLL_EN_ADDR, ALT_CLKMGR_PERPLL_EN_EMAC1CLK_SET_MSK);
  101b64:	e30430a0 	movw	r3, #16544	; 0x40a0
  101b68:	e34f3fd0 	movt	r3, #65488	; 0xffd0
  101b6c:	e30420a0 	movw	r2, #16544	; 0x40a0
  101b70:	e34f2fd0 	movt	r2, #65488	; 0xffd0
  101b74:	e5922000 	ldr	r2, [r2]
  101b78:	e3c22002 	bic	r2, r2, #2
  101b7c:	e5832000 	str	r2, [r3]
        break;
  101b80:	ea00007d 	b	101d7c <alt_clk_clock_disable+0x4a0>
    case ALT_CLK_USB_MP:
        alt_clrbits_word(ALT_CLKMGR_PERPLL_EN_ADDR, ALT_CLKMGR_PERPLL_EN_USBCLK_SET_MSK);
  101b84:	e30430a0 	movw	r3, #16544	; 0x40a0
  101b88:	e34f3fd0 	movt	r3, #65488	; 0xffd0
  101b8c:	e30420a0 	movw	r2, #16544	; 0x40a0
  101b90:	e34f2fd0 	movt	r2, #65488	; 0xffd0
  101b94:	e5922000 	ldr	r2, [r2]
  101b98:	e3c22004 	bic	r2, r2, #4
  101b9c:	e5832000 	str	r2, [r3]
        break;
  101ba0:	ea000075 	b	101d7c <alt_clk_clock_disable+0x4a0>
    case ALT_CLK_SPI_M:
        alt_clrbits_word(ALT_CLKMGR_PERPLL_EN_ADDR, ALT_CLKMGR_PERPLL_EN_SPIMCLK_SET_MSK);
  101ba4:	e30430a0 	movw	r3, #16544	; 0x40a0
  101ba8:	e34f3fd0 	movt	r3, #65488	; 0xffd0
  101bac:	e30420a0 	movw	r2, #16544	; 0x40a0
  101bb0:	e34f2fd0 	movt	r2, #65488	; 0xffd0
  101bb4:	e5922000 	ldr	r2, [r2]
  101bb8:	e3c22008 	bic	r2, r2, #8
  101bbc:	e5832000 	str	r2, [r3]
        break;
  101bc0:	ea00006d 	b	101d7c <alt_clk_clock_disable+0x4a0>
    case ALT_CLK_CAN0:
        alt_clrbits_word(ALT_CLKMGR_PERPLL_EN_ADDR, ALT_CLKMGR_PERPLL_EN_CAN0CLK_SET_MSK);
  101bc4:	e30430a0 	movw	r3, #16544	; 0x40a0
  101bc8:	e34f3fd0 	movt	r3, #65488	; 0xffd0
  101bcc:	e30420a0 	movw	r2, #16544	; 0x40a0
  101bd0:	e34f2fd0 	movt	r2, #65488	; 0xffd0
  101bd4:	e5922000 	ldr	r2, [r2]
  101bd8:	e3c22010 	bic	r2, r2, #16
  101bdc:	e5832000 	str	r2, [r3]
        break;
  101be0:	ea000065 	b	101d7c <alt_clk_clock_disable+0x4a0>
    case ALT_CLK_CAN1:
        alt_clrbits_word(ALT_CLKMGR_PERPLL_EN_ADDR, ALT_CLKMGR_PERPLL_EN_CAN1CLK_SET_MSK);
  101be4:	e30430a0 	movw	r3, #16544	; 0x40a0
  101be8:	e34f3fd0 	movt	r3, #65488	; 0xffd0
  101bec:	e30420a0 	movw	r2, #16544	; 0x40a0
  101bf0:	e34f2fd0 	movt	r2, #65488	; 0xffd0
  101bf4:	e5922000 	ldr	r2, [r2]
  101bf8:	e3c22020 	bic	r2, r2, #32
  101bfc:	e5832000 	str	r2, [r3]
        break;
  101c00:	ea00005d 	b	101d7c <alt_clk_clock_disable+0x4a0>
    case ALT_CLK_GPIO_DB:
        alt_clrbits_word(ALT_CLKMGR_PERPLL_EN_ADDR, ALT_CLKMGR_PERPLL_EN_GPIOCLK_SET_MSK);
  101c04:	e30430a0 	movw	r3, #16544	; 0x40a0
  101c08:	e34f3fd0 	movt	r3, #65488	; 0xffd0
  101c0c:	e30420a0 	movw	r2, #16544	; 0x40a0
  101c10:	e34f2fd0 	movt	r2, #65488	; 0xffd0
  101c14:	e5922000 	ldr	r2, [r2]
  101c18:	e3c22040 	bic	r2, r2, #64	; 0x40
  101c1c:	e5832000 	str	r2, [r3]
        break;
  101c20:	ea000055 	b	101d7c <alt_clk_clock_disable+0x4a0>
    case ALT_CLK_H2F_USER1:
        alt_clrbits_word(ALT_CLKMGR_PERPLL_EN_ADDR, ALT_CLKMGR_PERPLL_EN_S2FUSER1CLK_SET_MSK);
  101c24:	e30430a0 	movw	r3, #16544	; 0x40a0
  101c28:	e34f3fd0 	movt	r3, #65488	; 0xffd0
  101c2c:	e30420a0 	movw	r2, #16544	; 0x40a0
  101c30:	e34f2fd0 	movt	r2, #65488	; 0xffd0
  101c34:	e5922000 	ldr	r2, [r2]
  101c38:	e3c22080 	bic	r2, r2, #128	; 0x80
  101c3c:	e5832000 	str	r2, [r3]
        break;
  101c40:	ea00004d 	b	101d7c <alt_clk_clock_disable+0x4a0>
    case ALT_CLK_SDMMC:
        alt_clrbits_word(ALT_CLKMGR_PERPLL_EN_ADDR, ALT_CLKMGR_PERPLL_EN_SDMMCCLK_SET_MSK);
  101c44:	e30430a0 	movw	r3, #16544	; 0x40a0
  101c48:	e34f3fd0 	movt	r3, #65488	; 0xffd0
  101c4c:	e30420a0 	movw	r2, #16544	; 0x40a0
  101c50:	e34f2fd0 	movt	r2, #65488	; 0xffd0
  101c54:	e5922000 	ldr	r2, [r2]
  101c58:	e3c22c01 	bic	r2, r2, #256	; 0x100
  101c5c:	e5832000 	str	r2, [r3]
        break;
  101c60:	ea000045 	b	101d7c <alt_clk_clock_disable+0x4a0>
    case ALT_CLK_NAND_X:
        alt_clrbits_word(ALT_CLKMGR_PERPLL_EN_ADDR, ALT_CLKMGR_PERPLL_EN_NANDCLK_SET_MSK);
  101c64:	e30430a0 	movw	r3, #16544	; 0x40a0
  101c68:	e34f3fd0 	movt	r3, #65488	; 0xffd0
  101c6c:	e30420a0 	movw	r2, #16544	; 0x40a0
  101c70:	e34f2fd0 	movt	r2, #65488	; 0xffd0
  101c74:	e5922000 	ldr	r2, [r2]
  101c78:	e3c22b01 	bic	r2, r2, #1024	; 0x400
  101c7c:	e5832000 	str	r2, [r3]
        alt_clk_mgr_wait(ALT_CLKMGR_PERPLL_EN_ADDR, ALT_SW_MANAGED_CLK_WAIT_NANDCLK);
  101c80:	e3a01008 	mov	r1, #8
  101c84:	e30400a0 	movw	r0, #16544	; 0x40a0
  101c88:	e34f0fd0 	movt	r0, #65488	; 0xffd0
  101c8c:	ebfffb87 	bl	100ab0 <alt_clk_mgr_wait>
        /* gate nand_clk off before nand_x_clk. */
        alt_clrbits_word(ALT_CLKMGR_PERPLL_EN_ADDR, ALT_CLKMGR_PERPLL_EN_NANDXCLK_SET_MSK);
  101c90:	e30430a0 	movw	r3, #16544	; 0x40a0
  101c94:	e34f3fd0 	movt	r3, #65488	; 0xffd0
  101c98:	e30420a0 	movw	r2, #16544	; 0x40a0
  101c9c:	e34f2fd0 	movt	r2, #65488	; 0xffd0
  101ca0:	e5922000 	ldr	r2, [r2]
  101ca4:	e3c22c02 	bic	r2, r2, #512	; 0x200
  101ca8:	e5832000 	str	r2, [r3]
        break;
  101cac:	ea000032 	b	101d7c <alt_clk_clock_disable+0x4a0>
    case ALT_CLK_NAND:
        alt_clrbits_word(ALT_CLKMGR_PERPLL_EN_ADDR, ALT_CLKMGR_PERPLL_EN_NANDCLK_SET_MSK);
  101cb0:	e30430a0 	movw	r3, #16544	; 0x40a0
  101cb4:	e34f3fd0 	movt	r3, #65488	; 0xffd0
  101cb8:	e30420a0 	movw	r2, #16544	; 0x40a0
  101cbc:	e34f2fd0 	movt	r2, #65488	; 0xffd0
  101cc0:	e5922000 	ldr	r2, [r2]
  101cc4:	e3c22b01 	bic	r2, r2, #1024	; 0x400
  101cc8:	e5832000 	str	r2, [r3]
        break;
  101ccc:	ea00002a 	b	101d7c <alt_clk_clock_disable+0x4a0>
    case ALT_CLK_QSPI:
        alt_clrbits_word(ALT_CLKMGR_PERPLL_EN_ADDR, ALT_CLKMGR_PERPLL_EN_QSPICLK_SET_MSK);
  101cd0:	e30430a0 	movw	r3, #16544	; 0x40a0
  101cd4:	e34f3fd0 	movt	r3, #65488	; 0xffd0
  101cd8:	e30420a0 	movw	r2, #16544	; 0x40a0
  101cdc:	e34f2fd0 	movt	r2, #65488	; 0xffd0
  101ce0:	e5922000 	ldr	r2, [r2]
  101ce4:	e3c22b02 	bic	r2, r2, #2048	; 0x800
  101ce8:	e5832000 	str	r2, [r3]
        break;
  101cec:	ea000022 	b	101d7c <alt_clk_clock_disable+0x4a0>

        /* Clocks that originate at the SDRAM PLL. */
    case ALT_CLK_DDR_DQS:
        alt_clrbits_word(ALT_CLKMGR_SDRPLL_EN_ADDR, ALT_CLKMGR_SDRPLL_EN_DDRDQSCLK_SET_MSK);
  101cf0:	e30430d8 	movw	r3, #16600	; 0x40d8
  101cf4:	e34f3fd0 	movt	r3, #65488	; 0xffd0
  101cf8:	e30420d8 	movw	r2, #16600	; 0x40d8
  101cfc:	e34f2fd0 	movt	r2, #65488	; 0xffd0
  101d00:	e5922000 	ldr	r2, [r2]
  101d04:	e3c22001 	bic	r2, r2, #1
  101d08:	e5832000 	str	r2, [r3]
        break;
  101d0c:	ea00001a 	b	101d7c <alt_clk_clock_disable+0x4a0>
    case ALT_CLK_DDR_2X_DQS:
        alt_clrbits_word(ALT_CLKMGR_SDRPLL_EN_ADDR, ALT_CLKMGR_SDRPLL_EN_DDR2XDQSCLK_SET_MSK);
  101d10:	e30430d8 	movw	r3, #16600	; 0x40d8
  101d14:	e34f3fd0 	movt	r3, #65488	; 0xffd0
  101d18:	e30420d8 	movw	r2, #16600	; 0x40d8
  101d1c:	e34f2fd0 	movt	r2, #65488	; 0xffd0
  101d20:	e5922000 	ldr	r2, [r2]
  101d24:	e3c22002 	bic	r2, r2, #2
  101d28:	e5832000 	str	r2, [r3]
        break;
  101d2c:	ea000012 	b	101d7c <alt_clk_clock_disable+0x4a0>
    case ALT_CLK_DDR_DQ:
        alt_clrbits_word(ALT_CLKMGR_SDRPLL_EN_ADDR, ALT_CLKMGR_SDRPLL_EN_DDRDQCLK_SET_MSK);
  101d30:	e30430d8 	movw	r3, #16600	; 0x40d8
  101d34:	e34f3fd0 	movt	r3, #65488	; 0xffd0
  101d38:	e30420d8 	movw	r2, #16600	; 0x40d8
  101d3c:	e34f2fd0 	movt	r2, #65488	; 0xffd0
  101d40:	e5922000 	ldr	r2, [r2]
  101d44:	e3c22004 	bic	r2, r2, #4
  101d48:	e5832000 	str	r2, [r3]
        break;
  101d4c:	ea00000a 	b	101d7c <alt_clk_clock_disable+0x4a0>
    case ALT_CLK_H2F_USER2:
        alt_clrbits_word(ALT_CLKMGR_SDRPLL_EN_ADDR, ALT_CLKMGR_SDRPLL_EN_S2FUSER2CLK_SET_MSK);
  101d50:	e30430d8 	movw	r3, #16600	; 0x40d8
  101d54:	e34f3fd0 	movt	r3, #65488	; 0xffd0
  101d58:	e30420d8 	movw	r2, #16600	; 0x40d8
  101d5c:	e34f2fd0 	movt	r2, #65488	; 0xffd0
  101d60:	e5922000 	ldr	r2, [r2]
  101d64:	e3c22008 	bic	r2, r2, #8
  101d68:	e5832000 	str	r2, [r3]
        break;
  101d6c:	ea000002 	b	101d7c <alt_clk_clock_disable+0x4a0>

    default:
        status = ALT_E_BAD_ARG;
  101d70:	e3e03008 	mvn	r3, #8
  101d74:	e50b3008 	str	r3, [fp, #-8]
        break;
  101d78:	e1a00000 	nop			; (mov r0, r0)
    }

    return status;
  101d7c:	e51b3008 	ldr	r3, [fp, #-8]
}
  101d80:	e1a00003 	mov	r0, r3
  101d84:	e24bd004 	sub	sp, fp, #4
  101d88:	e8bd8800 	pop	{fp, pc}

00101d8c <alt_clk_clock_enable>:
/*
// alt_clk_clock_enable() enables the specified clock. Once the clock is enabled, its
// clock signal propagates to its elements.
*/
ALT_STATUS_CODE alt_clk_clock_enable(ALT_CLK_t clk)
{
  101d8c:	e92d4800 	push	{fp, lr}
  101d90:	e28db004 	add	fp, sp, #4
  101d94:	e24dd010 	sub	sp, sp, #16
  101d98:	e1a03000 	mov	r3, r0
  101d9c:	e54b300d 	strb	r3, [fp, #-13]
    ALT_STATUS_CODE status = ALT_E_SUCCESS;
  101da0:	e3a03000 	mov	r3, #0
  101da4:	e50b3008 	str	r3, [fp, #-8]

    switch (clk)
  101da8:	e55b300d 	ldrb	r3, [fp, #-13]
  101dac:	e2433009 	sub	r3, r3, #9
  101db0:	e3530037 	cmp	r3, #55	; 0x37
  101db4:	979ff103 	ldrls	pc, [pc, r3, lsl #2]
  101db8:	ea00011b 	b	10222c <alt_clk_clock_enable+0x4a0>
  101dbc:	00101e9c 	mulseq	r0, ip, lr
  101dc0:	00101e9c 	mulseq	r0, ip, lr
  101dc4:	00101e9c 	mulseq	r0, ip, lr
  101dc8:	0010222c 	andseq	r2, r0, ip, lsr #4
  101dcc:	0010222c 	andseq	r2, r0, ip, lsr #4
  101dd0:	0010222c 	andseq	r2, r0, ip, lsr #4
  101dd4:	0010222c 	andseq	r2, r0, ip, lsr #4
  101dd8:	0010222c 	andseq	r2, r0, ip, lsr #4
  101ddc:	0010222c 	andseq	r2, r0, ip, lsr #4
  101de0:	0010222c 	andseq	r2, r0, ip, lsr #4
  101de4:	0010222c 	andseq	r2, r0, ip, lsr #4
  101de8:	0010222c 	andseq	r2, r0, ip, lsr #4
  101dec:	0010222c 	andseq	r2, r0, ip, lsr #4
  101df0:	0010222c 	andseq	r2, r0, ip, lsr #4
  101df4:	00101ed0 			; <UNDEFINED> instruction: 0x00101ed0
  101df8:	0010222c 	andseq	r2, r0, ip, lsr #4
  101dfc:	00101eb0 			; <UNDEFINED> instruction: 0x00101eb0
  101e00:	00101ef0 			; <UNDEFINED> instruction: 0x00101ef0
  101e04:	00101f10 	andseq	r1, r0, r0, lsl pc
  101e08:	0010222c 	andseq	r2, r0, ip, lsr #4
  101e0c:	00101f30 	andseq	r1, r0, r0, lsr pc
  101e10:	00101f70 	andseq	r1, r0, r0, ror pc
  101e14:	00101f90 	mulseq	r0, r0, pc	; <UNPREDICTABLE>
  101e18:	00101f50 	andseq	r1, r0, r0, asr pc
  101e1c:	0010222c 	andseq	r2, r0, ip, lsr #4
  101e20:	0010222c 	andseq	r2, r0, ip, lsr #4
  101e24:	00101fb0 			; <UNDEFINED> instruction: 0x00101fb0
  101e28:	00101fd0 			; <UNDEFINED> instruction: 0x00101fd0
  101e2c:	0010222c 	andseq	r2, r0, ip, lsr #4
  101e30:	0010222c 	andseq	r2, r0, ip, lsr #4
  101e34:	0010222c 	andseq	r2, r0, ip, lsr #4
  101e38:	0010222c 	andseq	r2, r0, ip, lsr #4
  101e3c:	0010222c 	andseq	r2, r0, ip, lsr #4
  101e40:	0010222c 	andseq	r2, r0, ip, lsr #4
  101e44:	00102030 	andseq	r2, r0, r0, lsr r0
  101e48:	00102050 	andseq	r2, r0, r0, asr r0
  101e4c:	0010218c 	andseq	r2, r0, ip, lsl #3
  101e50:	00102110 	andseq	r2, r0, r0, lsl r1
  101e54:	00102140 	andseq	r2, r0, r0, asr #2
  101e58:	001020f0 	ldrsheq	r2, [r0], -r0
  101e5c:	00101ff0 			; <UNDEFINED> instruction: 0x00101ff0
  101e60:	00102010 	andseq	r2, r0, r0, lsl r0
  101e64:	00102070 	andseq	r2, r0, r0, ror r0
  101e68:	00102090 	mulseq	r0, r0, r0
  101e6c:	001020b0 	ldrheq	r2, [r0], -r0
  101e70:	001020d0 	ldrsbeq	r2, [r0], -r0
  101e74:	0010222c 	andseq	r2, r0, ip, lsr #4
  101e78:	0010222c 	andseq	r2, r0, ip, lsr #4
  101e7c:	0010222c 	andseq	r2, r0, ip, lsr #4
  101e80:	0010222c 	andseq	r2, r0, ip, lsr #4
  101e84:	0010222c 	andseq	r2, r0, ip, lsr #4
  101e88:	0010222c 	andseq	r2, r0, ip, lsr #4
  101e8c:	001021ac 	andseq	r2, r0, ip, lsr #3
  101e90:	001021cc 	andseq	r2, r0, ip, asr #3
  101e94:	001021ec 	andseq	r2, r0, ip, ror #3
  101e98:	0010220c 	andseq	r2, r0, ip, lsl #4
    {
        /* For PLLs, take them out of bypass mode. */
    case ALT_CLK_MAIN_PLL:
    case ALT_CLK_PERIPHERAL_PLL:
    case ALT_CLK_SDRAM_PLL:
        status = alt_clk_pll_bypass_disable(clk);
  101e9c:	e55b300d 	ldrb	r3, [fp, #-13]
  101ea0:	e1a00003 	mov	r0, r3
  101ea4:	ebfffc35 	bl	100f80 <alt_clk_pll_bypass_disable>
  101ea8:	e50b0008 	str	r0, [fp, #-8]
        break;
  101eac:	ea0000e1 	b	102238 <alt_clk_clock_enable+0x4ac>

        /* Clocks that originate at the Main PLL. */
    case ALT_CLK_L4_MAIN:
        alt_setbits_word(ALT_CLKMGR_MAINPLL_EN_ADDR, ALT_CLKMGR_MAINPLL_EN_L4MAINCLK_SET_MSK);
  101eb0:	e3043060 	movw	r3, #16480	; 0x4060
  101eb4:	e34f3fd0 	movt	r3, #65488	; 0xffd0
  101eb8:	e3042060 	movw	r2, #16480	; 0x4060
  101ebc:	e34f2fd0 	movt	r2, #65488	; 0xffd0
  101ec0:	e5922000 	ldr	r2, [r2]
  101ec4:	e3822001 	orr	r2, r2, #1
  101ec8:	e5832000 	str	r2, [r3]
        break;
  101ecc:	ea0000d9 	b	102238 <alt_clk_clock_enable+0x4ac>
    case ALT_CLK_L3_MP:
        alt_setbits_word(ALT_CLKMGR_MAINPLL_EN_ADDR, ALT_CLKMGR_MAINPLL_EN_L3MPCLK_SET_MSK);
  101ed0:	e3043060 	movw	r3, #16480	; 0x4060
  101ed4:	e34f3fd0 	movt	r3, #65488	; 0xffd0
  101ed8:	e3042060 	movw	r2, #16480	; 0x4060
  101edc:	e34f2fd0 	movt	r2, #65488	; 0xffd0
  101ee0:	e5922000 	ldr	r2, [r2]
  101ee4:	e3822002 	orr	r2, r2, #2
  101ee8:	e5832000 	str	r2, [r3]
        break;
  101eec:	ea0000d1 	b	102238 <alt_clk_clock_enable+0x4ac>
    case ALT_CLK_L4_MP:
        alt_setbits_word(ALT_CLKMGR_MAINPLL_EN_ADDR, ALT_CLKMGR_MAINPLL_EN_L4MPCLK_SET_MSK);
  101ef0:	e3043060 	movw	r3, #16480	; 0x4060
  101ef4:	e34f3fd0 	movt	r3, #65488	; 0xffd0
  101ef8:	e3042060 	movw	r2, #16480	; 0x4060
  101efc:	e34f2fd0 	movt	r2, #65488	; 0xffd0
  101f00:	e5922000 	ldr	r2, [r2]
  101f04:	e3822004 	orr	r2, r2, #4
  101f08:	e5832000 	str	r2, [r3]
        break;
  101f0c:	ea0000c9 	b	102238 <alt_clk_clock_enable+0x4ac>
    case ALT_CLK_L4_SP:
        alt_setbits_word(ALT_CLKMGR_MAINPLL_EN_ADDR, ALT_CLKMGR_MAINPLL_EN_L4SPCLK_SET_MSK);
  101f10:	e3043060 	movw	r3, #16480	; 0x4060
  101f14:	e34f3fd0 	movt	r3, #65488	; 0xffd0
  101f18:	e3042060 	movw	r2, #16480	; 0x4060
  101f1c:	e34f2fd0 	movt	r2, #65488	; 0xffd0
  101f20:	e5922000 	ldr	r2, [r2]
  101f24:	e3822008 	orr	r2, r2, #8
  101f28:	e5832000 	str	r2, [r3]
        break;
  101f2c:	ea0000c1 	b	102238 <alt_clk_clock_enable+0x4ac>
    case ALT_CLK_DBG_AT:
        alt_setbits_word(ALT_CLKMGR_MAINPLL_EN_ADDR, ALT_CLKMGR_MAINPLL_EN_DBGATCLK_SET_MSK);
  101f30:	e3043060 	movw	r3, #16480	; 0x4060
  101f34:	e34f3fd0 	movt	r3, #65488	; 0xffd0
  101f38:	e3042060 	movw	r2, #16480	; 0x4060
  101f3c:	e34f2fd0 	movt	r2, #65488	; 0xffd0
  101f40:	e5922000 	ldr	r2, [r2]
  101f44:	e3822010 	orr	r2, r2, #16
  101f48:	e5832000 	str	r2, [r3]
        break;
  101f4c:	ea0000b9 	b	102238 <alt_clk_clock_enable+0x4ac>
    case ALT_CLK_DBG:
        alt_setbits_word(ALT_CLKMGR_MAINPLL_EN_ADDR, ALT_CLKMGR_MAINPLL_EN_DBGCLK_SET_MSK);
  101f50:	e3043060 	movw	r3, #16480	; 0x4060
  101f54:	e34f3fd0 	movt	r3, #65488	; 0xffd0
  101f58:	e3042060 	movw	r2, #16480	; 0x4060
  101f5c:	e34f2fd0 	movt	r2, #65488	; 0xffd0
  101f60:	e5922000 	ldr	r2, [r2]
  101f64:	e3822020 	orr	r2, r2, #32
  101f68:	e5832000 	str	r2, [r3]
        break;
  101f6c:	ea0000b1 	b	102238 <alt_clk_clock_enable+0x4ac>
    case ALT_CLK_DBG_TRACE:
        alt_setbits_word(ALT_CLKMGR_MAINPLL_EN_ADDR, ALT_CLKMGR_MAINPLL_EN_DBGTRACECLK_SET_MSK);
  101f70:	e3043060 	movw	r3, #16480	; 0x4060
  101f74:	e34f3fd0 	movt	r3, #65488	; 0xffd0
  101f78:	e3042060 	movw	r2, #16480	; 0x4060
  101f7c:	e34f2fd0 	movt	r2, #65488	; 0xffd0
  101f80:	e5922000 	ldr	r2, [r2]
  101f84:	e3822040 	orr	r2, r2, #64	; 0x40
  101f88:	e5832000 	str	r2, [r3]
        break;
  101f8c:	ea0000a9 	b	102238 <alt_clk_clock_enable+0x4ac>
    case ALT_CLK_DBG_TIMER:
        alt_setbits_word(ALT_CLKMGR_MAINPLL_EN_ADDR, ALT_CLKMGR_MAINPLL_EN_DBGTMRCLK_SET_MSK);
  101f90:	e3043060 	movw	r3, #16480	; 0x4060
  101f94:	e34f3fd0 	movt	r3, #65488	; 0xffd0
  101f98:	e3042060 	movw	r2, #16480	; 0x4060
  101f9c:	e34f2fd0 	movt	r2, #65488	; 0xffd0
  101fa0:	e5922000 	ldr	r2, [r2]
  101fa4:	e3822080 	orr	r2, r2, #128	; 0x80
  101fa8:	e5832000 	str	r2, [r3]
        break;
  101fac:	ea0000a1 	b	102238 <alt_clk_clock_enable+0x4ac>
    case ALT_CLK_CFG:
        alt_setbits_word(ALT_CLKMGR_MAINPLL_EN_ADDR, ALT_CLKMGR_MAINPLL_EN_CFGCLK_SET_MSK);
  101fb0:	e3043060 	movw	r3, #16480	; 0x4060
  101fb4:	e34f3fd0 	movt	r3, #65488	; 0xffd0
  101fb8:	e3042060 	movw	r2, #16480	; 0x4060
  101fbc:	e34f2fd0 	movt	r2, #65488	; 0xffd0
  101fc0:	e5922000 	ldr	r2, [r2]
  101fc4:	e3822c01 	orr	r2, r2, #256	; 0x100
  101fc8:	e5832000 	str	r2, [r3]
        break;
  101fcc:	ea000099 	b	102238 <alt_clk_clock_enable+0x4ac>
    case ALT_CLK_H2F_USER0:
        alt_setbits_word(ALT_CLKMGR_MAINPLL_EN_ADDR, ALT_CLKMGR_MAINPLL_EN_S2FUSER0CLK_SET_MSK);
  101fd0:	e3043060 	movw	r3, #16480	; 0x4060
  101fd4:	e34f3fd0 	movt	r3, #65488	; 0xffd0
  101fd8:	e3042060 	movw	r2, #16480	; 0x4060
  101fdc:	e34f2fd0 	movt	r2, #65488	; 0xffd0
  101fe0:	e5922000 	ldr	r2, [r2]
  101fe4:	e3822c02 	orr	r2, r2, #512	; 0x200
  101fe8:	e5832000 	str	r2, [r3]
        break;
  101fec:	ea000091 	b	102238 <alt_clk_clock_enable+0x4ac>

        /* Clocks that originate at the Peripheral PLL. */
    case ALT_CLK_EMAC0:
        alt_setbits_word(ALT_CLKMGR_PERPLL_EN_ADDR, ALT_CLKMGR_PERPLL_EN_EMAC0CLK_SET_MSK);
  101ff0:	e30430a0 	movw	r3, #16544	; 0x40a0
  101ff4:	e34f3fd0 	movt	r3, #65488	; 0xffd0
  101ff8:	e30420a0 	movw	r2, #16544	; 0x40a0
  101ffc:	e34f2fd0 	movt	r2, #65488	; 0xffd0
  102000:	e5922000 	ldr	r2, [r2]
  102004:	e3822001 	orr	r2, r2, #1
  102008:	e5832000 	str	r2, [r3]
        break;
  10200c:	ea000089 	b	102238 <alt_clk_clock_enable+0x4ac>
    case ALT_CLK_EMAC1:
        alt_setbits_word(ALT_CLKMGR_PERPLL_EN_ADDR, ALT_CLKMGR_PERPLL_EN_EMAC1CLK_SET_MSK);
  102010:	e30430a0 	movw	r3, #16544	; 0x40a0
  102014:	e34f3fd0 	movt	r3, #65488	; 0xffd0
  102018:	e30420a0 	movw	r2, #16544	; 0x40a0
  10201c:	e34f2fd0 	movt	r2, #65488	; 0xffd0
  102020:	e5922000 	ldr	r2, [r2]
  102024:	e3822002 	orr	r2, r2, #2
  102028:	e5832000 	str	r2, [r3]
        break;
  10202c:	ea000081 	b	102238 <alt_clk_clock_enable+0x4ac>
    case ALT_CLK_USB_MP:
        alt_setbits_word(ALT_CLKMGR_PERPLL_EN_ADDR, ALT_CLKMGR_PERPLL_EN_USBCLK_SET_MSK);
  102030:	e30430a0 	movw	r3, #16544	; 0x40a0
  102034:	e34f3fd0 	movt	r3, #65488	; 0xffd0
  102038:	e30420a0 	movw	r2, #16544	; 0x40a0
  10203c:	e34f2fd0 	movt	r2, #65488	; 0xffd0
  102040:	e5922000 	ldr	r2, [r2]
  102044:	e3822004 	orr	r2, r2, #4
  102048:	e5832000 	str	r2, [r3]
        break;
  10204c:	ea000079 	b	102238 <alt_clk_clock_enable+0x4ac>
    case ALT_CLK_SPI_M:
        alt_setbits_word(ALT_CLKMGR_PERPLL_EN_ADDR, ALT_CLKMGR_PERPLL_EN_SPIMCLK_SET_MSK);
  102050:	e30430a0 	movw	r3, #16544	; 0x40a0
  102054:	e34f3fd0 	movt	r3, #65488	; 0xffd0
  102058:	e30420a0 	movw	r2, #16544	; 0x40a0
  10205c:	e34f2fd0 	movt	r2, #65488	; 0xffd0
  102060:	e5922000 	ldr	r2, [r2]
  102064:	e3822008 	orr	r2, r2, #8
  102068:	e5832000 	str	r2, [r3]
        break;
  10206c:	ea000071 	b	102238 <alt_clk_clock_enable+0x4ac>
    case ALT_CLK_CAN0:
        alt_setbits_word(ALT_CLKMGR_PERPLL_EN_ADDR, ALT_CLKMGR_PERPLL_EN_CAN0CLK_SET_MSK);
  102070:	e30430a0 	movw	r3, #16544	; 0x40a0
  102074:	e34f3fd0 	movt	r3, #65488	; 0xffd0
  102078:	e30420a0 	movw	r2, #16544	; 0x40a0
  10207c:	e34f2fd0 	movt	r2, #65488	; 0xffd0
  102080:	e5922000 	ldr	r2, [r2]
  102084:	e3822010 	orr	r2, r2, #16
  102088:	e5832000 	str	r2, [r3]
        break;
  10208c:	ea000069 	b	102238 <alt_clk_clock_enable+0x4ac>
    case ALT_CLK_CAN1:
        alt_setbits_word(ALT_CLKMGR_PERPLL_EN_ADDR, ALT_CLKMGR_PERPLL_EN_CAN1CLK_SET_MSK);
  102090:	e30430a0 	movw	r3, #16544	; 0x40a0
  102094:	e34f3fd0 	movt	r3, #65488	; 0xffd0
  102098:	e30420a0 	movw	r2, #16544	; 0x40a0
  10209c:	e34f2fd0 	movt	r2, #65488	; 0xffd0
  1020a0:	e5922000 	ldr	r2, [r2]
  1020a4:	e3822020 	orr	r2, r2, #32
  1020a8:	e5832000 	str	r2, [r3]
        break;
  1020ac:	ea000061 	b	102238 <alt_clk_clock_enable+0x4ac>
    case ALT_CLK_GPIO_DB:
        alt_setbits_word(ALT_CLKMGR_PERPLL_EN_ADDR, ALT_CLKMGR_PERPLL_EN_GPIOCLK_SET_MSK);
  1020b0:	e30430a0 	movw	r3, #16544	; 0x40a0
  1020b4:	e34f3fd0 	movt	r3, #65488	; 0xffd0
  1020b8:	e30420a0 	movw	r2, #16544	; 0x40a0
  1020bc:	e34f2fd0 	movt	r2, #65488	; 0xffd0
  1020c0:	e5922000 	ldr	r2, [r2]
  1020c4:	e3822040 	orr	r2, r2, #64	; 0x40
  1020c8:	e5832000 	str	r2, [r3]
        break;
  1020cc:	ea000059 	b	102238 <alt_clk_clock_enable+0x4ac>
    case ALT_CLK_H2F_USER1:
        alt_setbits_word(ALT_CLKMGR_PERPLL_EN_ADDR, ALT_CLKMGR_PERPLL_EN_S2FUSER1CLK_SET_MSK);
  1020d0:	e30430a0 	movw	r3, #16544	; 0x40a0
  1020d4:	e34f3fd0 	movt	r3, #65488	; 0xffd0
  1020d8:	e30420a0 	movw	r2, #16544	; 0x40a0
  1020dc:	e34f2fd0 	movt	r2, #65488	; 0xffd0
  1020e0:	e5922000 	ldr	r2, [r2]
  1020e4:	e3822080 	orr	r2, r2, #128	; 0x80
  1020e8:	e5832000 	str	r2, [r3]
        break;
  1020ec:	ea000051 	b	102238 <alt_clk_clock_enable+0x4ac>
    case ALT_CLK_SDMMC:
        alt_setbits_word(ALT_CLKMGR_PERPLL_EN_ADDR, ALT_CLKMGR_PERPLL_EN_SDMMCCLK_SET_MSK);
  1020f0:	e30430a0 	movw	r3, #16544	; 0x40a0
  1020f4:	e34f3fd0 	movt	r3, #65488	; 0xffd0
  1020f8:	e30420a0 	movw	r2, #16544	; 0x40a0
  1020fc:	e34f2fd0 	movt	r2, #65488	; 0xffd0
  102100:	e5922000 	ldr	r2, [r2]
  102104:	e3822c01 	orr	r2, r2, #256	; 0x100
  102108:	e5832000 	str	r2, [r3]
        break;
  10210c:	ea000049 	b	102238 <alt_clk_clock_enable+0x4ac>
    case ALT_CLK_NAND_X:
        /* implementation detail - should ALK_CLK_NAND be gated off here before enabling ALT_CLK_NAND_X? */
        alt_setbits_word(ALT_CLKMGR_PERPLL_EN_ADDR, ALT_CLKMGR_PERPLL_EN_NANDXCLK_SET_MSK);
  102110:	e30430a0 	movw	r3, #16544	; 0x40a0
  102114:	e34f3fd0 	movt	r3, #65488	; 0xffd0
  102118:	e30420a0 	movw	r2, #16544	; 0x40a0
  10211c:	e34f2fd0 	movt	r2, #65488	; 0xffd0
  102120:	e5922000 	ldr	r2, [r2]
  102124:	e3822c02 	orr	r2, r2, #512	; 0x200
  102128:	e5832000 	str	r2, [r3]
        /* implementation detail - should this wait be enforced here? */
        alt_clk_mgr_wait(ALT_CLKMGR_PERPLL_EN_ADDR, ALT_SW_MANAGED_CLK_WAIT_NANDCLK);
  10212c:	e3a01008 	mov	r1, #8
  102130:	e30400a0 	movw	r0, #16544	; 0x40a0
  102134:	e34f0fd0 	movt	r0, #65488	; 0xffd0
  102138:	ebfffa5c 	bl	100ab0 <alt_clk_mgr_wait>
        break;
  10213c:	ea00003d 	b	102238 <alt_clk_clock_enable+0x4ac>
    case ALT_CLK_NAND:
        /* enabling ALT_CLK_NAND always implies enabling ALT_CLK_NAND_X first */
        alt_setbits_word(ALT_CLKMGR_PERPLL_EN_ADDR, ALT_CLKMGR_PERPLL_EN_NANDXCLK_SET_MSK);
  102140:	e30430a0 	movw	r3, #16544	; 0x40a0
  102144:	e34f3fd0 	movt	r3, #65488	; 0xffd0
  102148:	e30420a0 	movw	r2, #16544	; 0x40a0
  10214c:	e34f2fd0 	movt	r2, #65488	; 0xffd0
  102150:	e5922000 	ldr	r2, [r2]
  102154:	e3822c02 	orr	r2, r2, #512	; 0x200
  102158:	e5832000 	str	r2, [r3]
        alt_clk_mgr_wait(ALT_CLKMGR_PERPLL_EN_ADDR, ALT_SW_MANAGED_CLK_WAIT_NANDCLK);
  10215c:	e3a01008 	mov	r1, #8
  102160:	e30400a0 	movw	r0, #16544	; 0x40a0
  102164:	e34f0fd0 	movt	r0, #65488	; 0xffd0
  102168:	ebfffa50 	bl	100ab0 <alt_clk_mgr_wait>
        /* gate nand_x_clk on at least 8 MCU clocks before nand_clk */
        alt_setbits_word(ALT_CLKMGR_PERPLL_EN_ADDR, ALT_CLKMGR_PERPLL_EN_NANDCLK_SET_MSK);
  10216c:	e30430a0 	movw	r3, #16544	; 0x40a0
  102170:	e34f3fd0 	movt	r3, #65488	; 0xffd0
  102174:	e30420a0 	movw	r2, #16544	; 0x40a0
  102178:	e34f2fd0 	movt	r2, #65488	; 0xffd0
  10217c:	e5922000 	ldr	r2, [r2]
  102180:	e3822b01 	orr	r2, r2, #1024	; 0x400
  102184:	e5832000 	str	r2, [r3]
        break;
  102188:	ea00002a 	b	102238 <alt_clk_clock_enable+0x4ac>
    case ALT_CLK_QSPI:
        alt_setbits_word(ALT_CLKMGR_PERPLL_EN_ADDR, ALT_CLKMGR_PERPLL_EN_QSPICLK_SET_MSK);
  10218c:	e30430a0 	movw	r3, #16544	; 0x40a0
  102190:	e34f3fd0 	movt	r3, #65488	; 0xffd0
  102194:	e30420a0 	movw	r2, #16544	; 0x40a0
  102198:	e34f2fd0 	movt	r2, #65488	; 0xffd0
  10219c:	e5922000 	ldr	r2, [r2]
  1021a0:	e3822b02 	orr	r2, r2, #2048	; 0x800
  1021a4:	e5832000 	str	r2, [r3]
        break;
  1021a8:	ea000022 	b	102238 <alt_clk_clock_enable+0x4ac>

        /* Clocks that originate at the SDRAM PLL. */
    case ALT_CLK_DDR_DQS:
        alt_setbits_word(ALT_CLKMGR_SDRPLL_EN_ADDR, ALT_CLKMGR_SDRPLL_EN_DDRDQSCLK_SET_MSK);
  1021ac:	e30430d8 	movw	r3, #16600	; 0x40d8
  1021b0:	e34f3fd0 	movt	r3, #65488	; 0xffd0
  1021b4:	e30420d8 	movw	r2, #16600	; 0x40d8
  1021b8:	e34f2fd0 	movt	r2, #65488	; 0xffd0
  1021bc:	e5922000 	ldr	r2, [r2]
  1021c0:	e3822001 	orr	r2, r2, #1
  1021c4:	e5832000 	str	r2, [r3]
        break;
  1021c8:	ea00001a 	b	102238 <alt_clk_clock_enable+0x4ac>
    case ALT_CLK_DDR_2X_DQS:
        alt_setbits_word(ALT_CLKMGR_SDRPLL_EN_ADDR, ALT_CLKMGR_SDRPLL_EN_DDR2XDQSCLK_SET_MSK);
  1021cc:	e30430d8 	movw	r3, #16600	; 0x40d8
  1021d0:	e34f3fd0 	movt	r3, #65488	; 0xffd0
  1021d4:	e30420d8 	movw	r2, #16600	; 0x40d8
  1021d8:	e34f2fd0 	movt	r2, #65488	; 0xffd0
  1021dc:	e5922000 	ldr	r2, [r2]
  1021e0:	e3822002 	orr	r2, r2, #2
  1021e4:	e5832000 	str	r2, [r3]
        break;
  1021e8:	ea000012 	b	102238 <alt_clk_clock_enable+0x4ac>
    case ALT_CLK_DDR_DQ:
        alt_setbits_word(ALT_CLKMGR_SDRPLL_EN_ADDR, ALT_CLKMGR_SDRPLL_EN_DDRDQCLK_SET_MSK);
  1021ec:	e30430d8 	movw	r3, #16600	; 0x40d8
  1021f0:	e34f3fd0 	movt	r3, #65488	; 0xffd0
  1021f4:	e30420d8 	movw	r2, #16600	; 0x40d8
  1021f8:	e34f2fd0 	movt	r2, #65488	; 0xffd0
  1021fc:	e5922000 	ldr	r2, [r2]
  102200:	e3822004 	orr	r2, r2, #4
  102204:	e5832000 	str	r2, [r3]
        break;
  102208:	ea00000a 	b	102238 <alt_clk_clock_enable+0x4ac>
    case ALT_CLK_H2F_USER2:
        alt_setbits_word(ALT_CLKMGR_SDRPLL_EN_ADDR, ALT_CLKMGR_SDRPLL_EN_S2FUSER2CLK_SET_MSK);
  10220c:	e30430d8 	movw	r3, #16600	; 0x40d8
  102210:	e34f3fd0 	movt	r3, #65488	; 0xffd0
  102214:	e30420d8 	movw	r2, #16600	; 0x40d8
  102218:	e34f2fd0 	movt	r2, #65488	; 0xffd0
  10221c:	e5922000 	ldr	r2, [r2]
  102220:	e3822008 	orr	r2, r2, #8
  102224:	e5832000 	str	r2, [r3]
        break;
  102228:	ea000002 	b	102238 <alt_clk_clock_enable+0x4ac>

    default:
        status = ALT_E_BAD_ARG;
  10222c:	e3e03008 	mvn	r3, #8
  102230:	e50b3008 	str	r3, [fp, #-8]
        break;
  102234:	e1a00000 	nop			; (mov r0, r0)
    }

    return status;
  102238:	e51b3008 	ldr	r3, [fp, #-8]
}
  10223c:	e1a00003 	mov	r0, r3
  102240:	e24bd004 	sub	sp, fp, #4
  102244:	e8bd8800 	pop	{fp, pc}

00102248 <alt_clk_is_enabled>:

/*
// alt_clk_is_enabled() returns whether the specified clock is enabled or not.
*/
ALT_STATUS_CODE alt_clk_is_enabled(ALT_CLK_t clk)
{
  102248:	e92d4800 	push	{fp, lr}
  10224c:	e28db004 	add	fp, sp, #4
  102250:	e24dd010 	sub	sp, sp, #16
  102254:	e1a03000 	mov	r3, r0
  102258:	e54b300d 	strb	r3, [fp, #-13]
    ALT_STATUS_CODE status = ALT_E_BAD_ARG;
  10225c:	e3e03008 	mvn	r3, #8
  102260:	e50b3008 	str	r3, [fp, #-8]

    switch (clk)
  102264:	e55b300d 	ldrb	r3, [fp, #-13]
  102268:	e2433009 	sub	r3, r3, #9
  10226c:	e3530037 	cmp	r3, #55	; 0x37
  102270:	979ff103 	ldrls	pc, [pc, r3, lsl #2]
  102274:	ea00015f 	b	1027f8 <alt_clk_is_enabled+0x5b0>
  102278:	00102358 	andseq	r2, r0, r8, asr r3
  10227c:	00102358 	andseq	r2, r0, r8, asr r3
  102280:	00102358 	andseq	r2, r0, r8, asr r3
  102284:	001027f8 			; <UNDEFINED> instruction: 0x001027f8
  102288:	00102380 	andseq	r2, r0, r0, lsl #7
  10228c:	00102380 	andseq	r2, r0, r0, lsl #7
  102290:	00102380 	andseq	r2, r0, r0, lsl #7
  102294:	00102380 	andseq	r2, r0, r0, lsl #7
  102298:	00102380 	andseq	r2, r0, r0, lsl #7
  10229c:	00102380 	andseq	r2, r0, r0, lsl #7
  1022a0:	00102380 	andseq	r2, r0, r0, lsl #7
  1022a4:	00102380 	andseq	r2, r0, r0, lsl #7
  1022a8:	00102380 	andseq	r2, r0, r0, lsl #7
  1022ac:	00102380 	andseq	r2, r0, r0, lsl #7
  1022b0:	001023b4 			; <UNDEFINED> instruction: 0x001023b4
  1022b4:	00102380 	andseq	r2, r0, r0, lsl #7
  1022b8:	0010238c 	andseq	r2, r0, ip, lsl #7
  1022bc:	001023e0 	andseq	r2, r0, r0, ror #7
  1022c0:	0010240c 	andseq	r2, r0, ip, lsl #8
  1022c4:	00102380 	andseq	r2, r0, r0, lsl #7
  1022c8:	00102438 	andseq	r2, r0, r8, lsr r4
  1022cc:	00102490 	mulseq	r0, r0, r4
  1022d0:	001024bc 			; <UNDEFINED> instruction: 0x001024bc
  1022d4:	00102464 	andseq	r2, r0, r4, ror #8
  1022d8:	00102380 	andseq	r2, r0, r0, lsl #7
  1022dc:	00102380 	andseq	r2, r0, r0, lsl #7
  1022e0:	001024e8 	andseq	r2, r0, r8, ror #9
  1022e4:	00102514 	andseq	r2, r0, r4, lsl r5
  1022e8:	00102380 	andseq	r2, r0, r0, lsl #7
  1022ec:	00102380 	andseq	r2, r0, r0, lsl #7
  1022f0:	00102380 	andseq	r2, r0, r0, lsl #7
  1022f4:	00102380 	andseq	r2, r0, r0, lsl #7
  1022f8:	00102380 	andseq	r2, r0, r0, lsl #7
  1022fc:	00102380 	andseq	r2, r0, r0, lsl #7
  102300:	00102594 	mulseq	r0, r4, r5
  102304:	001025c0 	andseq	r2, r0, r0, asr #11
  102308:	00102720 	andseq	r2, r0, r0, lsr #14
  10230c:	001026c8 	andseq	r2, r0, r8, asr #13
  102310:	001026f4 			; <UNDEFINED> instruction: 0x001026f4
  102314:	0010269c 	mulseq	r0, ip, r6
  102318:	00102540 	andseq	r2, r0, r0, asr #10
  10231c:	00102568 	andseq	r2, r0, r8, ror #10
  102320:	001025ec 	andseq	r2, r0, ip, ror #11
  102324:	00102618 	andseq	r2, r0, r8, lsl r6
  102328:	00102644 	andseq	r2, r0, r4, asr #12
  10232c:	00102670 	andseq	r2, r0, r0, ror r6
  102330:	00102380 	andseq	r2, r0, r0, lsl #7
  102334:	00102380 	andseq	r2, r0, r0, lsl #7
  102338:	00102380 	andseq	r2, r0, r0, lsl #7
  10233c:	001027f8 			; <UNDEFINED> instruction: 0x001027f8
  102340:	001027f8 			; <UNDEFINED> instruction: 0x001027f8
  102344:	00102380 	andseq	r2, r0, r0, lsl #7
  102348:	0010274c 	andseq	r2, r0, ip, asr #14
  10234c:	00102774 	andseq	r2, r0, r4, ror r7
  102350:	001027a0 	andseq	r2, r0, r0, lsr #15
  102354:	001027cc 	andseq	r2, r0, ip, asr #15
    {
        /* For PLLs, this function checks if the PLL is bypassed or not. */
    case ALT_CLK_MAIN_PLL:
    case ALT_CLK_PERIPHERAL_PLL:
    case ALT_CLK_SDRAM_PLL:
        status = (alt_clk_pll_is_bypassed(clk) != ALT_E_TRUE);
  102358:	e55b300d 	ldrb	r3, [fp, #-13]
  10235c:	e1a00003 	mov	r0, r3
  102360:	ebfffccd 	bl	10169c <alt_clk_pll_is_bypassed>
  102364:	e1a03000 	mov	r3, r0
  102368:	e3530001 	cmp	r3, #1
  10236c:	13a03001 	movne	r3, #1
  102370:	03a03000 	moveq	r3, #0
  102374:	e6ef3073 	uxtb	r3, r3
  102378:	e50b3008 	str	r3, [fp, #-8]
        break;
  10237c:	ea000120 	b	102804 <alt_clk_is_enabled+0x5bc>
    case ALT_CLK_PERIPHERAL_PLL_C5:
    case ALT_CLK_SDRAM_PLL_C0:
    case ALT_CLK_SDRAM_PLL_C1:
    case ALT_CLK_SDRAM_PLL_C2:
    case ALT_CLK_SDRAM_PLL_C5:
        status = ALT_E_BAD_ARG;
  102380:	e3e03008 	mvn	r3, #8
  102384:	e50b3008 	str	r3, [fp, #-8]
        break;
  102388:	ea00011d 	b	102804 <alt_clk_is_enabled+0x5bc>

        /* Clocks that originate at the Main PLL. */
    case ALT_CLK_L4_MAIN:
        status = (ALT_CLKMGR_MAINPLL_EN_L4MAINCLK_GET(alt_read_word(ALT_CLKMGR_MAINPLL_EN_ADDR)))
  10238c:	e3043060 	movw	r3, #16480	; 0x4060
  102390:	e34f3fd0 	movt	r3, #65488	; 0xffd0
  102394:	e5933000 	ldr	r3, [r3]
  102398:	e2033001 	and	r3, r3, #1
            ? ALT_E_TRUE : ALT_E_FALSE;
  10239c:	e3530000 	cmp	r3, #0
  1023a0:	13a03001 	movne	r3, #1
  1023a4:	03a03000 	moveq	r3, #0
  1023a8:	e6ef3073 	uxtb	r3, r3
        status = ALT_E_BAD_ARG;
        break;

        /* Clocks that originate at the Main PLL. */
    case ALT_CLK_L4_MAIN:
        status = (ALT_CLKMGR_MAINPLL_EN_L4MAINCLK_GET(alt_read_word(ALT_CLKMGR_MAINPLL_EN_ADDR)))
  1023ac:	e50b3008 	str	r3, [fp, #-8]
            ? ALT_E_TRUE : ALT_E_FALSE;
        break;
  1023b0:	ea000113 	b	102804 <alt_clk_is_enabled+0x5bc>
    case ALT_CLK_L3_MP:
        status = (ALT_CLKMGR_MAINPLL_EN_L3MPCLK_GET(alt_read_word(ALT_CLKMGR_MAINPLL_EN_ADDR)))
  1023b4:	e3043060 	movw	r3, #16480	; 0x4060
  1023b8:	e34f3fd0 	movt	r3, #65488	; 0xffd0
  1023bc:	e5933000 	ldr	r3, [r3]
  1023c0:	e2033002 	and	r3, r3, #2
  1023c4:	e1a030a3 	lsr	r3, r3, #1
            ? ALT_E_TRUE : ALT_E_FALSE;
  1023c8:	e3530000 	cmp	r3, #0
  1023cc:	13a03001 	movne	r3, #1
  1023d0:	03a03000 	moveq	r3, #0
  1023d4:	e6ef3073 	uxtb	r3, r3
    case ALT_CLK_L4_MAIN:
        status = (ALT_CLKMGR_MAINPLL_EN_L4MAINCLK_GET(alt_read_word(ALT_CLKMGR_MAINPLL_EN_ADDR)))
            ? ALT_E_TRUE : ALT_E_FALSE;
        break;
    case ALT_CLK_L3_MP:
        status = (ALT_CLKMGR_MAINPLL_EN_L3MPCLK_GET(alt_read_word(ALT_CLKMGR_MAINPLL_EN_ADDR)))
  1023d8:	e50b3008 	str	r3, [fp, #-8]
            ? ALT_E_TRUE : ALT_E_FALSE;
        break;
  1023dc:	ea000108 	b	102804 <alt_clk_is_enabled+0x5bc>
    case ALT_CLK_L4_MP:
        status = (ALT_CLKMGR_MAINPLL_EN_L4MPCLK_GET(alt_read_word(ALT_CLKMGR_MAINPLL_EN_ADDR)))
  1023e0:	e3043060 	movw	r3, #16480	; 0x4060
  1023e4:	e34f3fd0 	movt	r3, #65488	; 0xffd0
  1023e8:	e5933000 	ldr	r3, [r3]
  1023ec:	e2033004 	and	r3, r3, #4
  1023f0:	e1a03123 	lsr	r3, r3, #2
            ? ALT_E_TRUE : ALT_E_FALSE;
  1023f4:	e3530000 	cmp	r3, #0
  1023f8:	13a03001 	movne	r3, #1
  1023fc:	03a03000 	moveq	r3, #0
  102400:	e6ef3073 	uxtb	r3, r3
    case ALT_CLK_L3_MP:
        status = (ALT_CLKMGR_MAINPLL_EN_L3MPCLK_GET(alt_read_word(ALT_CLKMGR_MAINPLL_EN_ADDR)))
            ? ALT_E_TRUE : ALT_E_FALSE;
        break;
    case ALT_CLK_L4_MP:
        status = (ALT_CLKMGR_MAINPLL_EN_L4MPCLK_GET(alt_read_word(ALT_CLKMGR_MAINPLL_EN_ADDR)))
  102404:	e50b3008 	str	r3, [fp, #-8]
            ? ALT_E_TRUE : ALT_E_FALSE;
        break;
  102408:	ea0000fd 	b	102804 <alt_clk_is_enabled+0x5bc>
    case ALT_CLK_L4_SP:
        status = (ALT_CLKMGR_MAINPLL_EN_L4SPCLK_GET(alt_read_word(ALT_CLKMGR_MAINPLL_EN_ADDR)))
  10240c:	e3043060 	movw	r3, #16480	; 0x4060
  102410:	e34f3fd0 	movt	r3, #65488	; 0xffd0
  102414:	e5933000 	ldr	r3, [r3]
  102418:	e2033008 	and	r3, r3, #8
  10241c:	e1a031a3 	lsr	r3, r3, #3
            ? ALT_E_TRUE : ALT_E_FALSE;
  102420:	e3530000 	cmp	r3, #0
  102424:	13a03001 	movne	r3, #1
  102428:	03a03000 	moveq	r3, #0
  10242c:	e6ef3073 	uxtb	r3, r3
    case ALT_CLK_L4_MP:
        status = (ALT_CLKMGR_MAINPLL_EN_L4MPCLK_GET(alt_read_word(ALT_CLKMGR_MAINPLL_EN_ADDR)))
            ? ALT_E_TRUE : ALT_E_FALSE;
        break;
    case ALT_CLK_L4_SP:
        status = (ALT_CLKMGR_MAINPLL_EN_L4SPCLK_GET(alt_read_word(ALT_CLKMGR_MAINPLL_EN_ADDR)))
  102430:	e50b3008 	str	r3, [fp, #-8]
            ? ALT_E_TRUE : ALT_E_FALSE;
        break;
  102434:	ea0000f2 	b	102804 <alt_clk_is_enabled+0x5bc>
    case ALT_CLK_DBG_AT:
        status = (ALT_CLKMGR_MAINPLL_EN_DBGATCLK_GET(alt_read_word(ALT_CLKMGR_MAINPLL_EN_ADDR)))
  102438:	e3043060 	movw	r3, #16480	; 0x4060
  10243c:	e34f3fd0 	movt	r3, #65488	; 0xffd0
  102440:	e5933000 	ldr	r3, [r3]
  102444:	e2033010 	and	r3, r3, #16
  102448:	e1a03223 	lsr	r3, r3, #4
            ? ALT_E_TRUE : ALT_E_FALSE;
  10244c:	e3530000 	cmp	r3, #0
  102450:	13a03001 	movne	r3, #1
  102454:	03a03000 	moveq	r3, #0
  102458:	e6ef3073 	uxtb	r3, r3
    case ALT_CLK_L4_SP:
        status = (ALT_CLKMGR_MAINPLL_EN_L4SPCLK_GET(alt_read_word(ALT_CLKMGR_MAINPLL_EN_ADDR)))
            ? ALT_E_TRUE : ALT_E_FALSE;
        break;
    case ALT_CLK_DBG_AT:
        status = (ALT_CLKMGR_MAINPLL_EN_DBGATCLK_GET(alt_read_word(ALT_CLKMGR_MAINPLL_EN_ADDR)))
  10245c:	e50b3008 	str	r3, [fp, #-8]
            ? ALT_E_TRUE : ALT_E_FALSE;
        break;
  102460:	ea0000e7 	b	102804 <alt_clk_is_enabled+0x5bc>
    case ALT_CLK_DBG:
        status = (ALT_CLKMGR_MAINPLL_EN_DBGCLK_GET(alt_read_word(ALT_CLKMGR_MAINPLL_EN_ADDR)))
  102464:	e3043060 	movw	r3, #16480	; 0x4060
  102468:	e34f3fd0 	movt	r3, #65488	; 0xffd0
  10246c:	e5933000 	ldr	r3, [r3]
  102470:	e2033020 	and	r3, r3, #32
  102474:	e1a032a3 	lsr	r3, r3, #5
            ? ALT_E_TRUE : ALT_E_FALSE;
  102478:	e3530000 	cmp	r3, #0
  10247c:	13a03001 	movne	r3, #1
  102480:	03a03000 	moveq	r3, #0
  102484:	e6ef3073 	uxtb	r3, r3
    case ALT_CLK_DBG_AT:
        status = (ALT_CLKMGR_MAINPLL_EN_DBGATCLK_GET(alt_read_word(ALT_CLKMGR_MAINPLL_EN_ADDR)))
            ? ALT_E_TRUE : ALT_E_FALSE;
        break;
    case ALT_CLK_DBG:
        status = (ALT_CLKMGR_MAINPLL_EN_DBGCLK_GET(alt_read_word(ALT_CLKMGR_MAINPLL_EN_ADDR)))
  102488:	e50b3008 	str	r3, [fp, #-8]
            ? ALT_E_TRUE : ALT_E_FALSE;
        break;
  10248c:	ea0000dc 	b	102804 <alt_clk_is_enabled+0x5bc>
    case ALT_CLK_DBG_TRACE:
        status = (ALT_CLKMGR_MAINPLL_EN_DBGTRACECLK_GET(alt_read_word(ALT_CLKMGR_MAINPLL_EN_ADDR)))
  102490:	e3043060 	movw	r3, #16480	; 0x4060
  102494:	e34f3fd0 	movt	r3, #65488	; 0xffd0
  102498:	e5933000 	ldr	r3, [r3]
  10249c:	e2033040 	and	r3, r3, #64	; 0x40
  1024a0:	e1a03323 	lsr	r3, r3, #6
            ? ALT_E_TRUE : ALT_E_FALSE;
  1024a4:	e3530000 	cmp	r3, #0
  1024a8:	13a03001 	movne	r3, #1
  1024ac:	03a03000 	moveq	r3, #0
  1024b0:	e6ef3073 	uxtb	r3, r3
    case ALT_CLK_DBG:
        status = (ALT_CLKMGR_MAINPLL_EN_DBGCLK_GET(alt_read_word(ALT_CLKMGR_MAINPLL_EN_ADDR)))
            ? ALT_E_TRUE : ALT_E_FALSE;
        break;
    case ALT_CLK_DBG_TRACE:
        status = (ALT_CLKMGR_MAINPLL_EN_DBGTRACECLK_GET(alt_read_word(ALT_CLKMGR_MAINPLL_EN_ADDR)))
  1024b4:	e50b3008 	str	r3, [fp, #-8]
            ? ALT_E_TRUE : ALT_E_FALSE;
        break;
  1024b8:	ea0000d1 	b	102804 <alt_clk_is_enabled+0x5bc>
    case ALT_CLK_DBG_TIMER:
        status = (ALT_CLKMGR_MAINPLL_EN_DBGTMRCLK_GET(alt_read_word(ALT_CLKMGR_MAINPLL_EN_ADDR)))
  1024bc:	e3043060 	movw	r3, #16480	; 0x4060
  1024c0:	e34f3fd0 	movt	r3, #65488	; 0xffd0
  1024c4:	e5933000 	ldr	r3, [r3]
  1024c8:	e2033080 	and	r3, r3, #128	; 0x80
  1024cc:	e1a033a3 	lsr	r3, r3, #7
            ? ALT_E_TRUE : ALT_E_FALSE;
  1024d0:	e3530000 	cmp	r3, #0
  1024d4:	13a03001 	movne	r3, #1
  1024d8:	03a03000 	moveq	r3, #0
  1024dc:	e6ef3073 	uxtb	r3, r3
    case ALT_CLK_DBG_TRACE:
        status = (ALT_CLKMGR_MAINPLL_EN_DBGTRACECLK_GET(alt_read_word(ALT_CLKMGR_MAINPLL_EN_ADDR)))
            ? ALT_E_TRUE : ALT_E_FALSE;
        break;
    case ALT_CLK_DBG_TIMER:
        status = (ALT_CLKMGR_MAINPLL_EN_DBGTMRCLK_GET(alt_read_word(ALT_CLKMGR_MAINPLL_EN_ADDR)))
  1024e0:	e50b3008 	str	r3, [fp, #-8]
            ? ALT_E_TRUE : ALT_E_FALSE;
        break;
  1024e4:	ea0000c6 	b	102804 <alt_clk_is_enabled+0x5bc>
    case ALT_CLK_CFG:
        status = (ALT_CLKMGR_MAINPLL_EN_CFGCLK_GET(alt_read_word(ALT_CLKMGR_MAINPLL_EN_ADDR)))
  1024e8:	e3043060 	movw	r3, #16480	; 0x4060
  1024ec:	e34f3fd0 	movt	r3, #65488	; 0xffd0
  1024f0:	e5933000 	ldr	r3, [r3]
  1024f4:	e2033c01 	and	r3, r3, #256	; 0x100
  1024f8:	e1a03423 	lsr	r3, r3, #8
            ? ALT_E_TRUE : ALT_E_FALSE;
  1024fc:	e3530000 	cmp	r3, #0
  102500:	13a03001 	movne	r3, #1
  102504:	03a03000 	moveq	r3, #0
  102508:	e6ef3073 	uxtb	r3, r3
    case ALT_CLK_DBG_TIMER:
        status = (ALT_CLKMGR_MAINPLL_EN_DBGTMRCLK_GET(alt_read_word(ALT_CLKMGR_MAINPLL_EN_ADDR)))
            ? ALT_E_TRUE : ALT_E_FALSE;
        break;
    case ALT_CLK_CFG:
        status = (ALT_CLKMGR_MAINPLL_EN_CFGCLK_GET(alt_read_word(ALT_CLKMGR_MAINPLL_EN_ADDR)))
  10250c:	e50b3008 	str	r3, [fp, #-8]
            ? ALT_E_TRUE : ALT_E_FALSE;
        break;
  102510:	ea0000bb 	b	102804 <alt_clk_is_enabled+0x5bc>
    case ALT_CLK_H2F_USER0:
        status = (ALT_CLKMGR_MAINPLL_EN_S2FUSER0CLK_GET(alt_read_word(ALT_CLKMGR_MAINPLL_EN_ADDR)))
  102514:	e3043060 	movw	r3, #16480	; 0x4060
  102518:	e34f3fd0 	movt	r3, #65488	; 0xffd0
  10251c:	e5933000 	ldr	r3, [r3]
  102520:	e2033c02 	and	r3, r3, #512	; 0x200
  102524:	e1a034a3 	lsr	r3, r3, #9
            ? ALT_E_TRUE : ALT_E_FALSE;
  102528:	e3530000 	cmp	r3, #0
  10252c:	13a03001 	movne	r3, #1
  102530:	03a03000 	moveq	r3, #0
  102534:	e6ef3073 	uxtb	r3, r3
    case ALT_CLK_CFG:
        status = (ALT_CLKMGR_MAINPLL_EN_CFGCLK_GET(alt_read_word(ALT_CLKMGR_MAINPLL_EN_ADDR)))
            ? ALT_E_TRUE : ALT_E_FALSE;
        break;
    case ALT_CLK_H2F_USER0:
        status = (ALT_CLKMGR_MAINPLL_EN_S2FUSER0CLK_GET(alt_read_word(ALT_CLKMGR_MAINPLL_EN_ADDR)))
  102538:	e50b3008 	str	r3, [fp, #-8]
            ? ALT_E_TRUE : ALT_E_FALSE;
        break;
  10253c:	ea0000b0 	b	102804 <alt_clk_is_enabled+0x5bc>

        /* Clocks that originate at the Peripheral PLL. */
    case ALT_CLK_EMAC0:
        status = (ALT_CLKMGR_PERPLL_EN_EMAC0CLK_GET(alt_read_word(ALT_CLKMGR_PERPLL_EN_ADDR)))
  102540:	e30430a0 	movw	r3, #16544	; 0x40a0
  102544:	e34f3fd0 	movt	r3, #65488	; 0xffd0
  102548:	e5933000 	ldr	r3, [r3]
  10254c:	e2033001 	and	r3, r3, #1
            ? ALT_E_TRUE : ALT_E_FALSE;
  102550:	e3530000 	cmp	r3, #0
  102554:	13a03001 	movne	r3, #1
  102558:	03a03000 	moveq	r3, #0
  10255c:	e6ef3073 	uxtb	r3, r3
            ? ALT_E_TRUE : ALT_E_FALSE;
        break;

        /* Clocks that originate at the Peripheral PLL. */
    case ALT_CLK_EMAC0:
        status = (ALT_CLKMGR_PERPLL_EN_EMAC0CLK_GET(alt_read_word(ALT_CLKMGR_PERPLL_EN_ADDR)))
  102560:	e50b3008 	str	r3, [fp, #-8]
            ? ALT_E_TRUE : ALT_E_FALSE;
        break;
  102564:	ea0000a6 	b	102804 <alt_clk_is_enabled+0x5bc>
    case ALT_CLK_EMAC1:
        status = (ALT_CLKMGR_PERPLL_EN_EMAC1CLK_GET(alt_read_word(ALT_CLKMGR_PERPLL_EN_ADDR)))
  102568:	e30430a0 	movw	r3, #16544	; 0x40a0
  10256c:	e34f3fd0 	movt	r3, #65488	; 0xffd0
  102570:	e5933000 	ldr	r3, [r3]
  102574:	e2033002 	and	r3, r3, #2
  102578:	e1a030a3 	lsr	r3, r3, #1
            ? ALT_E_TRUE : ALT_E_FALSE;
  10257c:	e3530000 	cmp	r3, #0
  102580:	13a03001 	movne	r3, #1
  102584:	03a03000 	moveq	r3, #0
  102588:	e6ef3073 	uxtb	r3, r3
    case ALT_CLK_EMAC0:
        status = (ALT_CLKMGR_PERPLL_EN_EMAC0CLK_GET(alt_read_word(ALT_CLKMGR_PERPLL_EN_ADDR)))
            ? ALT_E_TRUE : ALT_E_FALSE;
        break;
    case ALT_CLK_EMAC1:
        status = (ALT_CLKMGR_PERPLL_EN_EMAC1CLK_GET(alt_read_word(ALT_CLKMGR_PERPLL_EN_ADDR)))
  10258c:	e50b3008 	str	r3, [fp, #-8]
            ? ALT_E_TRUE : ALT_E_FALSE;
        break;
  102590:	ea00009b 	b	102804 <alt_clk_is_enabled+0x5bc>
    case ALT_CLK_USB_MP:
        status = (ALT_CLKMGR_PERPLL_EN_USBCLK_GET(alt_read_word(ALT_CLKMGR_PERPLL_EN_ADDR)))
  102594:	e30430a0 	movw	r3, #16544	; 0x40a0
  102598:	e34f3fd0 	movt	r3, #65488	; 0xffd0
  10259c:	e5933000 	ldr	r3, [r3]
  1025a0:	e2033004 	and	r3, r3, #4
  1025a4:	e1a03123 	lsr	r3, r3, #2
            ? ALT_E_TRUE : ALT_E_FALSE;
  1025a8:	e3530000 	cmp	r3, #0
  1025ac:	13a03001 	movne	r3, #1
  1025b0:	03a03000 	moveq	r3, #0
  1025b4:	e6ef3073 	uxtb	r3, r3
    case ALT_CLK_EMAC1:
        status = (ALT_CLKMGR_PERPLL_EN_EMAC1CLK_GET(alt_read_word(ALT_CLKMGR_PERPLL_EN_ADDR)))
            ? ALT_E_TRUE : ALT_E_FALSE;
        break;
    case ALT_CLK_USB_MP:
        status = (ALT_CLKMGR_PERPLL_EN_USBCLK_GET(alt_read_word(ALT_CLKMGR_PERPLL_EN_ADDR)))
  1025b8:	e50b3008 	str	r3, [fp, #-8]
            ? ALT_E_TRUE : ALT_E_FALSE;
        break;
  1025bc:	ea000090 	b	102804 <alt_clk_is_enabled+0x5bc>
    case ALT_CLK_SPI_M:
        status = (ALT_CLKMGR_PERPLL_EN_SPIMCLK_GET(alt_read_word(ALT_CLKMGR_PERPLL_EN_ADDR)))
  1025c0:	e30430a0 	movw	r3, #16544	; 0x40a0
  1025c4:	e34f3fd0 	movt	r3, #65488	; 0xffd0
  1025c8:	e5933000 	ldr	r3, [r3]
  1025cc:	e2033008 	and	r3, r3, #8
  1025d0:	e1a031a3 	lsr	r3, r3, #3
            ? ALT_E_TRUE : ALT_E_FALSE;
  1025d4:	e3530000 	cmp	r3, #0
  1025d8:	13a03001 	movne	r3, #1
  1025dc:	03a03000 	moveq	r3, #0
  1025e0:	e6ef3073 	uxtb	r3, r3
    case ALT_CLK_USB_MP:
        status = (ALT_CLKMGR_PERPLL_EN_USBCLK_GET(alt_read_word(ALT_CLKMGR_PERPLL_EN_ADDR)))
            ? ALT_E_TRUE : ALT_E_FALSE;
        break;
    case ALT_CLK_SPI_M:
        status = (ALT_CLKMGR_PERPLL_EN_SPIMCLK_GET(alt_read_word(ALT_CLKMGR_PERPLL_EN_ADDR)))
  1025e4:	e50b3008 	str	r3, [fp, #-8]
            ? ALT_E_TRUE : ALT_E_FALSE;
        break;
  1025e8:	ea000085 	b	102804 <alt_clk_is_enabled+0x5bc>
    case ALT_CLK_CAN0:
        status = (ALT_CLKMGR_PERPLL_EN_CAN0CLK_GET(alt_read_word(ALT_CLKMGR_PERPLL_EN_ADDR)))
  1025ec:	e30430a0 	movw	r3, #16544	; 0x40a0
  1025f0:	e34f3fd0 	movt	r3, #65488	; 0xffd0
  1025f4:	e5933000 	ldr	r3, [r3]
  1025f8:	e2033010 	and	r3, r3, #16
  1025fc:	e1a03223 	lsr	r3, r3, #4
            ? ALT_E_TRUE : ALT_E_FALSE;
  102600:	e3530000 	cmp	r3, #0
  102604:	13a03001 	movne	r3, #1
  102608:	03a03000 	moveq	r3, #0
  10260c:	e6ef3073 	uxtb	r3, r3
    case ALT_CLK_SPI_M:
        status = (ALT_CLKMGR_PERPLL_EN_SPIMCLK_GET(alt_read_word(ALT_CLKMGR_PERPLL_EN_ADDR)))
            ? ALT_E_TRUE : ALT_E_FALSE;
        break;
    case ALT_CLK_CAN0:
        status = (ALT_CLKMGR_PERPLL_EN_CAN0CLK_GET(alt_read_word(ALT_CLKMGR_PERPLL_EN_ADDR)))
  102610:	e50b3008 	str	r3, [fp, #-8]
            ? ALT_E_TRUE : ALT_E_FALSE;
        break;
  102614:	ea00007a 	b	102804 <alt_clk_is_enabled+0x5bc>
    case ALT_CLK_CAN1:
        status = (ALT_CLKMGR_PERPLL_EN_CAN1CLK_GET(alt_read_word(ALT_CLKMGR_PERPLL_EN_ADDR)))
  102618:	e30430a0 	movw	r3, #16544	; 0x40a0
  10261c:	e34f3fd0 	movt	r3, #65488	; 0xffd0
  102620:	e5933000 	ldr	r3, [r3]
  102624:	e2033020 	and	r3, r3, #32
  102628:	e1a032a3 	lsr	r3, r3, #5
            ? ALT_E_TRUE : ALT_E_FALSE;
  10262c:	e3530000 	cmp	r3, #0
  102630:	13a03001 	movne	r3, #1
  102634:	03a03000 	moveq	r3, #0
  102638:	e6ef3073 	uxtb	r3, r3
    case ALT_CLK_CAN0:
        status = (ALT_CLKMGR_PERPLL_EN_CAN0CLK_GET(alt_read_word(ALT_CLKMGR_PERPLL_EN_ADDR)))
            ? ALT_E_TRUE : ALT_E_FALSE;
        break;
    case ALT_CLK_CAN1:
        status = (ALT_CLKMGR_PERPLL_EN_CAN1CLK_GET(alt_read_word(ALT_CLKMGR_PERPLL_EN_ADDR)))
  10263c:	e50b3008 	str	r3, [fp, #-8]
            ? ALT_E_TRUE : ALT_E_FALSE;
        break;
  102640:	ea00006f 	b	102804 <alt_clk_is_enabled+0x5bc>
    case ALT_CLK_GPIO_DB:
        status = (ALT_CLKMGR_PERPLL_EN_GPIOCLK_GET(alt_read_word(ALT_CLKMGR_PERPLL_EN_ADDR)))
  102644:	e30430a0 	movw	r3, #16544	; 0x40a0
  102648:	e34f3fd0 	movt	r3, #65488	; 0xffd0
  10264c:	e5933000 	ldr	r3, [r3]
  102650:	e2033040 	and	r3, r3, #64	; 0x40
  102654:	e1a03323 	lsr	r3, r3, #6
            ? ALT_E_TRUE : ALT_E_FALSE;
  102658:	e3530000 	cmp	r3, #0
  10265c:	13a03001 	movne	r3, #1
  102660:	03a03000 	moveq	r3, #0
  102664:	e6ef3073 	uxtb	r3, r3
    case ALT_CLK_CAN1:
        status = (ALT_CLKMGR_PERPLL_EN_CAN1CLK_GET(alt_read_word(ALT_CLKMGR_PERPLL_EN_ADDR)))
            ? ALT_E_TRUE : ALT_E_FALSE;
        break;
    case ALT_CLK_GPIO_DB:
        status = (ALT_CLKMGR_PERPLL_EN_GPIOCLK_GET(alt_read_word(ALT_CLKMGR_PERPLL_EN_ADDR)))
  102668:	e50b3008 	str	r3, [fp, #-8]
            ? ALT_E_TRUE : ALT_E_FALSE;
        break;
  10266c:	ea000064 	b	102804 <alt_clk_is_enabled+0x5bc>
    case ALT_CLK_H2F_USER1:
        status = (ALT_CLKMGR_PERPLL_EN_S2FUSER1CLK_GET(alt_read_word(ALT_CLKMGR_PERPLL_EN_ADDR)))
  102670:	e30430a0 	movw	r3, #16544	; 0x40a0
  102674:	e34f3fd0 	movt	r3, #65488	; 0xffd0
  102678:	e5933000 	ldr	r3, [r3]
  10267c:	e2033080 	and	r3, r3, #128	; 0x80
  102680:	e1a033a3 	lsr	r3, r3, #7
            ? ALT_E_TRUE : ALT_E_FALSE;
  102684:	e3530000 	cmp	r3, #0
  102688:	13a03001 	movne	r3, #1
  10268c:	03a03000 	moveq	r3, #0
  102690:	e6ef3073 	uxtb	r3, r3
    case ALT_CLK_GPIO_DB:
        status = (ALT_CLKMGR_PERPLL_EN_GPIOCLK_GET(alt_read_word(ALT_CLKMGR_PERPLL_EN_ADDR)))
            ? ALT_E_TRUE : ALT_E_FALSE;
        break;
    case ALT_CLK_H2F_USER1:
        status = (ALT_CLKMGR_PERPLL_EN_S2FUSER1CLK_GET(alt_read_word(ALT_CLKMGR_PERPLL_EN_ADDR)))
  102694:	e50b3008 	str	r3, [fp, #-8]
            ? ALT_E_TRUE : ALT_E_FALSE;
        break;
  102698:	ea000059 	b	102804 <alt_clk_is_enabled+0x5bc>

        /* Clocks that may originate at the Main PLL, the Peripheral PLL, or the FPGA. */
    case ALT_CLK_SDMMC:
        status = (ALT_CLKMGR_PERPLL_EN_SDMMCCLK_GET(alt_read_word(ALT_CLKMGR_PERPLL_EN_ADDR)))
  10269c:	e30430a0 	movw	r3, #16544	; 0x40a0
  1026a0:	e34f3fd0 	movt	r3, #65488	; 0xffd0
  1026a4:	e5933000 	ldr	r3, [r3]
  1026a8:	e2033c01 	and	r3, r3, #256	; 0x100
  1026ac:	e1a03423 	lsr	r3, r3, #8
            ? ALT_E_TRUE : ALT_E_FALSE;
  1026b0:	e3530000 	cmp	r3, #0
  1026b4:	13a03001 	movne	r3, #1
  1026b8:	03a03000 	moveq	r3, #0
  1026bc:	e6ef3073 	uxtb	r3, r3
            ? ALT_E_TRUE : ALT_E_FALSE;
        break;

        /* Clocks that may originate at the Main PLL, the Peripheral PLL, or the FPGA. */
    case ALT_CLK_SDMMC:
        status = (ALT_CLKMGR_PERPLL_EN_SDMMCCLK_GET(alt_read_word(ALT_CLKMGR_PERPLL_EN_ADDR)))
  1026c0:	e50b3008 	str	r3, [fp, #-8]
            ? ALT_E_TRUE : ALT_E_FALSE;
        break;
  1026c4:	ea00004e 	b	102804 <alt_clk_is_enabled+0x5bc>
    case ALT_CLK_NAND_X:
        status = (ALT_CLKMGR_PERPLL_EN_NANDXCLK_GET(alt_read_word(ALT_CLKMGR_PERPLL_EN_ADDR)))
  1026c8:	e30430a0 	movw	r3, #16544	; 0x40a0
  1026cc:	e34f3fd0 	movt	r3, #65488	; 0xffd0
  1026d0:	e5933000 	ldr	r3, [r3]
  1026d4:	e2033c02 	and	r3, r3, #512	; 0x200
  1026d8:	e1a034a3 	lsr	r3, r3, #9
            ? ALT_E_TRUE : ALT_E_FALSE;
  1026dc:	e3530000 	cmp	r3, #0
  1026e0:	13a03001 	movne	r3, #1
  1026e4:	03a03000 	moveq	r3, #0
  1026e8:	e6ef3073 	uxtb	r3, r3
    case ALT_CLK_SDMMC:
        status = (ALT_CLKMGR_PERPLL_EN_SDMMCCLK_GET(alt_read_word(ALT_CLKMGR_PERPLL_EN_ADDR)))
            ? ALT_E_TRUE : ALT_E_FALSE;
        break;
    case ALT_CLK_NAND_X:
        status = (ALT_CLKMGR_PERPLL_EN_NANDXCLK_GET(alt_read_word(ALT_CLKMGR_PERPLL_EN_ADDR)))
  1026ec:	e50b3008 	str	r3, [fp, #-8]
            ? ALT_E_TRUE : ALT_E_FALSE;
        break;
  1026f0:	ea000043 	b	102804 <alt_clk_is_enabled+0x5bc>
    case ALT_CLK_NAND:
        status = (ALT_CLKMGR_PERPLL_EN_NANDCLK_GET(alt_read_word(ALT_CLKMGR_PERPLL_EN_ADDR)))
  1026f4:	e30430a0 	movw	r3, #16544	; 0x40a0
  1026f8:	e34f3fd0 	movt	r3, #65488	; 0xffd0
  1026fc:	e5933000 	ldr	r3, [r3]
  102700:	e2033b01 	and	r3, r3, #1024	; 0x400
  102704:	e1a03523 	lsr	r3, r3, #10
            ? ALT_E_TRUE : ALT_E_FALSE;
  102708:	e3530000 	cmp	r3, #0
  10270c:	13a03001 	movne	r3, #1
  102710:	03a03000 	moveq	r3, #0
  102714:	e6ef3073 	uxtb	r3, r3
    case ALT_CLK_NAND_X:
        status = (ALT_CLKMGR_PERPLL_EN_NANDXCLK_GET(alt_read_word(ALT_CLKMGR_PERPLL_EN_ADDR)))
            ? ALT_E_TRUE : ALT_E_FALSE;
        break;
    case ALT_CLK_NAND:
        status = (ALT_CLKMGR_PERPLL_EN_NANDCLK_GET(alt_read_word(ALT_CLKMGR_PERPLL_EN_ADDR)))
  102718:	e50b3008 	str	r3, [fp, #-8]
            ? ALT_E_TRUE : ALT_E_FALSE;
        break;
  10271c:	ea000038 	b	102804 <alt_clk_is_enabled+0x5bc>
    case ALT_CLK_QSPI:
        status = (ALT_CLKMGR_PERPLL_EN_QSPICLK_GET(alt_read_word(ALT_CLKMGR_PERPLL_EN_ADDR)))
  102720:	e30430a0 	movw	r3, #16544	; 0x40a0
  102724:	e34f3fd0 	movt	r3, #65488	; 0xffd0
  102728:	e5933000 	ldr	r3, [r3]
  10272c:	e2033b02 	and	r3, r3, #2048	; 0x800
  102730:	e1a035a3 	lsr	r3, r3, #11
            ? ALT_E_TRUE : ALT_E_FALSE;
  102734:	e3530000 	cmp	r3, #0
  102738:	13a03001 	movne	r3, #1
  10273c:	03a03000 	moveq	r3, #0
  102740:	e6ef3073 	uxtb	r3, r3
    case ALT_CLK_NAND:
        status = (ALT_CLKMGR_PERPLL_EN_NANDCLK_GET(alt_read_word(ALT_CLKMGR_PERPLL_EN_ADDR)))
            ? ALT_E_TRUE : ALT_E_FALSE;
        break;
    case ALT_CLK_QSPI:
        status = (ALT_CLKMGR_PERPLL_EN_QSPICLK_GET(alt_read_word(ALT_CLKMGR_PERPLL_EN_ADDR)))
  102744:	e50b3008 	str	r3, [fp, #-8]
            ? ALT_E_TRUE : ALT_E_FALSE;
        break;
  102748:	ea00002d 	b	102804 <alt_clk_is_enabled+0x5bc>

        /* Clocks that originate at the SDRAM PLL. */
    case ALT_CLK_DDR_DQS:
        status = (ALT_CLKMGR_SDRPLL_EN_DDRDQSCLK_GET(alt_read_word(ALT_CLKMGR_SDRPLL_EN_ADDR)))
  10274c:	e30430d8 	movw	r3, #16600	; 0x40d8
  102750:	e34f3fd0 	movt	r3, #65488	; 0xffd0
  102754:	e5933000 	ldr	r3, [r3]
  102758:	e2033001 	and	r3, r3, #1
            ? ALT_E_TRUE : ALT_E_FALSE;
  10275c:	e3530000 	cmp	r3, #0
  102760:	13a03001 	movne	r3, #1
  102764:	03a03000 	moveq	r3, #0
  102768:	e6ef3073 	uxtb	r3, r3
            ? ALT_E_TRUE : ALT_E_FALSE;
        break;

        /* Clocks that originate at the SDRAM PLL. */
    case ALT_CLK_DDR_DQS:
        status = (ALT_CLKMGR_SDRPLL_EN_DDRDQSCLK_GET(alt_read_word(ALT_CLKMGR_SDRPLL_EN_ADDR)))
  10276c:	e50b3008 	str	r3, [fp, #-8]
            ? ALT_E_TRUE : ALT_E_FALSE;
        break;
  102770:	ea000023 	b	102804 <alt_clk_is_enabled+0x5bc>
    case ALT_CLK_DDR_2X_DQS:
        status = (ALT_CLKMGR_SDRPLL_EN_DDR2XDQSCLK_GET(alt_read_word(ALT_CLKMGR_SDRPLL_EN_ADDR)))
  102774:	e30430d8 	movw	r3, #16600	; 0x40d8
  102778:	e34f3fd0 	movt	r3, #65488	; 0xffd0
  10277c:	e5933000 	ldr	r3, [r3]
  102780:	e2033002 	and	r3, r3, #2
  102784:	e1a030a3 	lsr	r3, r3, #1
            ? ALT_E_TRUE : ALT_E_FALSE;
  102788:	e3530000 	cmp	r3, #0
  10278c:	13a03001 	movne	r3, #1
  102790:	03a03000 	moveq	r3, #0
  102794:	e6ef3073 	uxtb	r3, r3
    case ALT_CLK_DDR_DQS:
        status = (ALT_CLKMGR_SDRPLL_EN_DDRDQSCLK_GET(alt_read_word(ALT_CLKMGR_SDRPLL_EN_ADDR)))
            ? ALT_E_TRUE : ALT_E_FALSE;
        break;
    case ALT_CLK_DDR_2X_DQS:
        status = (ALT_CLKMGR_SDRPLL_EN_DDR2XDQSCLK_GET(alt_read_word(ALT_CLKMGR_SDRPLL_EN_ADDR)))
  102798:	e50b3008 	str	r3, [fp, #-8]
            ? ALT_E_TRUE : ALT_E_FALSE;
        break;
  10279c:	ea000018 	b	102804 <alt_clk_is_enabled+0x5bc>
    case ALT_CLK_DDR_DQ:
        status = (ALT_CLKMGR_SDRPLL_EN_DDRDQCLK_GET(alt_read_word(ALT_CLKMGR_SDRPLL_EN_ADDR)))
  1027a0:	e30430d8 	movw	r3, #16600	; 0x40d8
  1027a4:	e34f3fd0 	movt	r3, #65488	; 0xffd0
  1027a8:	e5933000 	ldr	r3, [r3]
  1027ac:	e2033004 	and	r3, r3, #4
  1027b0:	e1a03123 	lsr	r3, r3, #2
            ? ALT_E_TRUE : ALT_E_FALSE;
  1027b4:	e3530000 	cmp	r3, #0
  1027b8:	13a03001 	movne	r3, #1
  1027bc:	03a03000 	moveq	r3, #0
  1027c0:	e6ef3073 	uxtb	r3, r3
    case ALT_CLK_DDR_2X_DQS:
        status = (ALT_CLKMGR_SDRPLL_EN_DDR2XDQSCLK_GET(alt_read_word(ALT_CLKMGR_SDRPLL_EN_ADDR)))
            ? ALT_E_TRUE : ALT_E_FALSE;
        break;
    case ALT_CLK_DDR_DQ:
        status = (ALT_CLKMGR_SDRPLL_EN_DDRDQCLK_GET(alt_read_word(ALT_CLKMGR_SDRPLL_EN_ADDR)))
  1027c4:	e50b3008 	str	r3, [fp, #-8]
            ? ALT_E_TRUE : ALT_E_FALSE;
        break;
  1027c8:	ea00000d 	b	102804 <alt_clk_is_enabled+0x5bc>
    case ALT_CLK_H2F_USER2:
        status = (ALT_CLKMGR_SDRPLL_EN_S2FUSER2CLK_GET(alt_read_word(ALT_CLKMGR_SDRPLL_EN_ADDR)))
  1027cc:	e30430d8 	movw	r3, #16600	; 0x40d8
  1027d0:	e34f3fd0 	movt	r3, #65488	; 0xffd0
  1027d4:	e5933000 	ldr	r3, [r3]
  1027d8:	e2033008 	and	r3, r3, #8
  1027dc:	e1a031a3 	lsr	r3, r3, #3
            ? ALT_E_TRUE : ALT_E_FALSE;
  1027e0:	e3530000 	cmp	r3, #0
  1027e4:	13a03001 	movne	r3, #1
  1027e8:	03a03000 	moveq	r3, #0
  1027ec:	e6ef3073 	uxtb	r3, r3
    case ALT_CLK_DDR_DQ:
        status = (ALT_CLKMGR_SDRPLL_EN_DDRDQCLK_GET(alt_read_word(ALT_CLKMGR_SDRPLL_EN_ADDR)))
            ? ALT_E_TRUE : ALT_E_FALSE;
        break;
    case ALT_CLK_H2F_USER2:
        status = (ALT_CLKMGR_SDRPLL_EN_S2FUSER2CLK_GET(alt_read_word(ALT_CLKMGR_SDRPLL_EN_ADDR)))
  1027f0:	e50b3008 	str	r3, [fp, #-8]
            ? ALT_E_TRUE : ALT_E_FALSE;
        break;
  1027f4:	ea000002 	b	102804 <alt_clk_is_enabled+0x5bc>

    default:
        status = ALT_E_BAD_ARG;
  1027f8:	e3e03008 	mvn	r3, #8
  1027fc:	e50b3008 	str	r3, [fp, #-8]
        break;
  102800:	e1a00000 	nop			; (mov r0, r0)

    }

    return status;
  102804:	e51b3008 	ldr	r3, [fp, #-8]
}
  102808:	e1a00003 	mov	r0, r3
  10280c:	e24bd004 	sub	sp, fp, #4
  102810:	e8bd8800 	pop	{fp, pc}

00102814 <alt_clk_source_get>:
/*
// alt_clk_source_get() gets the input reference clock source selection value for the
// specified clock or PLL.
*/
ALT_CLK_t alt_clk_source_get(ALT_CLK_t clk)
{
  102814:	e92d4800 	push	{fp, lr}
  102818:	e28db004 	add	fp, sp, #4
  10281c:	e24dd010 	sub	sp, sp, #16
  102820:	e1a03000 	mov	r3, r0
  102824:	e54b300d 	strb	r3, [fp, #-13]
    ALT_CLK_t ret = ALT_CLK_UNKNOWN;
  102828:	e3a0304b 	mov	r3, #75	; 0x4b
  10282c:	e54b3005 	strb	r3, [fp, #-5]
    uint32_t  temp;

    switch (clk)
  102830:	e55b300d 	ldrb	r3, [fp, #-13]
  102834:	e353004a 	cmp	r3, #74	; 0x4a
  102838:	979ff103 	ldrls	pc, [pc, r3, lsl #2]
  10283c:	ea0001cb 	b	102f70 <alt_clk_source_get+0x75c>
  102840:	0010296c 	andseq	r2, r0, ip, ror #18
  102844:	0010296c 	andseq	r2, r0, ip, ror #18
  102848:	0010296c 	andseq	r2, r0, ip, ror #18
  10284c:	0010296c 	andseq	r2, r0, ip, ror #18
  102850:	0010296c 	andseq	r2, r0, ip, ror #18
  102854:	0010296c 	andseq	r2, r0, ip, ror #18
  102858:	0010296c 	andseq	r2, r0, ip, ror #18
  10285c:	0010296c 	andseq	r2, r0, ip, ror #18
  102860:	0010296c 	andseq	r2, r0, ip, ror #18
  102864:	00102978 	andseq	r2, r0, r8, ror r9
  102868:	00102984 	andseq	r2, r0, r4, lsl #19
  10286c:	00102998 	mulseq	r0, r8, r9
  102870:	00102978 	andseq	r2, r0, r8, ror r9
  102874:	001029ac 	andseq	r2, r0, ip, lsr #19
  102878:	001029ac 	andseq	r2, r0, ip, lsr #19
  10287c:	001029ac 	andseq	r2, r0, ip, lsr #19
  102880:	001029ac 	andseq	r2, r0, ip, lsr #19
  102884:	001029ac 	andseq	r2, r0, ip, lsr #19
  102888:	001029ac 	andseq	r2, r0, ip, lsr #19
  10288c:	001029d4 			; <UNDEFINED> instruction: 0x001029d4
  102890:	001029d4 			; <UNDEFINED> instruction: 0x001029d4
  102894:	001029d4 			; <UNDEFINED> instruction: 0x001029d4
  102898:	001029fc 			; <UNDEFINED> instruction: 0x001029fc
  10289c:	001029fc 			; <UNDEFINED> instruction: 0x001029fc
  1028a0:	001029fc 			; <UNDEFINED> instruction: 0x001029fc
  1028a4:	001029fc 			; <UNDEFINED> instruction: 0x001029fc
  1028a8:	00102a24 	andseq	r2, r0, r4, lsr #20
  1028ac:	00102a94 	mulseq	r0, r4, sl
  1028b0:	00102b08 	andseq	r2, r0, r8, lsl #22
  1028b4:	00102b08 	andseq	r2, r0, r8, lsl #22
  1028b8:	00102b08 	andseq	r2, r0, r8, lsl #22
  1028bc:	00102b08 	andseq	r2, r0, r8, lsl #22
  1028c0:	00102b08 	andseq	r2, r0, r8, lsl #22
  1028c4:	00102b30 	andseq	r2, r0, r0, lsr fp
  1028c8:	00102b58 	andseq	r2, r0, r8, asr fp
  1028cc:	00102b80 	andseq	r2, r0, r0, lsl #23
  1028d0:	00102b80 	andseq	r2, r0, r0, lsl #23
  1028d4:	00102ba8 	andseq	r2, r0, r8, lsr #23
  1028d8:	00102ba8 	andseq	r2, r0, r8, lsr #23
  1028dc:	00102ba8 	andseq	r2, r0, r8, lsr #23
  1028e0:	00102ba8 	andseq	r2, r0, r8, lsr #23
  1028e4:	00102ba8 	andseq	r2, r0, r8, lsr #23
  1028e8:	00102ba8 	andseq	r2, r0, r8, lsr #23
  1028ec:	00102c38 	andseq	r2, r0, r8, lsr ip
  1028f0:	00102c38 	andseq	r2, r0, r8, lsr ip
  1028f4:	00102dd4 			; <UNDEFINED> instruction: 0x00102dd4
  1028f8:	00102d34 	andseq	r2, r0, r4, lsr sp
  1028fc:	00102d34 	andseq	r2, r0, r4, lsr sp
  102900:	00102c98 	mulseq	r0, r8, ip
  102904:	00102bd8 			; <UNDEFINED> instruction: 0x00102bd8
  102908:	00102c08 	andseq	r2, r0, r8, lsl #24
  10290c:	00102c38 	andseq	r2, r0, r8, lsr ip
  102910:	00102c38 	andseq	r2, r0, r8, lsr ip
  102914:	00102c38 	andseq	r2, r0, r8, lsr ip
  102918:	00102c68 	andseq	r2, r0, r8, ror #24
  10291c:	00102e74 	andseq	r2, r0, r4, ror lr
  102920:	00102e74 	andseq	r2, r0, r4, ror lr
  102924:	00102e74 	andseq	r2, r0, r4, ror lr
  102928:	00102e74 	andseq	r2, r0, r4, ror lr
  10292c:	00102e74 	andseq	r2, r0, r4, ror lr
  102930:	00102e74 	andseq	r2, r0, r4, ror lr
  102934:	00102ea4 	andseq	r2, r0, r4, lsr #29
  102938:	00102ed4 			; <UNDEFINED> instruction: 0x00102ed4
  10293c:	00102f04 	andseq	r2, r0, r4, lsl #30
  102940:	00102f34 	andseq	r2, r0, r4, lsr pc
  102944:	00102f64 	andseq	r2, r0, r4, ror #30
  102948:	00102f64 	andseq	r2, r0, r4, ror #30
  10294c:	00102f64 	andseq	r2, r0, r4, ror #30
  102950:	00102f64 	andseq	r2, r0, r4, ror #30
  102954:	00102f64 	andseq	r2, r0, r4, ror #30
  102958:	00102f64 	andseq	r2, r0, r4, ror #30
  10295c:	00102f64 	andseq	r2, r0, r4, ror #30
  102960:	00102f64 	andseq	r2, r0, r4, ror #30
  102964:	00102f64 	andseq	r2, r0, r4, ror #30
  102968:	00102f64 	andseq	r2, r0, r4, ror #30
    case ALT_CLK_IN_PIN_JTAG:
    case ALT_CLK_IN_PIN_ULPI0:
    case ALT_CLK_IN_PIN_ULPI1:
    case ALT_CLK_IN_PIN_EMAC0_RX:
    case ALT_CLK_IN_PIN_EMAC1_RX:
        ret = clk;
  10296c:	e55b300d 	ldrb	r3, [fp, #-13]
  102970:	e54b3005 	strb	r3, [fp, #-5]
        break;
  102974:	ea000185 	b	102f90 <alt_clk_source_get+0x77c>

        /* Phase-Locked Loops. */
    case ALT_CLK_MAIN_PLL:
    case ALT_CLK_OSC1:
        ret = ALT_CLK_IN_PIN_OSC1;
  102978:	e3a03000 	mov	r3, #0
  10297c:	e54b3005 	strb	r3, [fp, #-5]
        break;
  102980:	ea000182 	b	102f90 <alt_clk_source_get+0x77c>
    case ALT_CLK_PERIPHERAL_PLL:
        ret = alt_clk_pll_source_get(ALT_CLK_PERIPHERAL_PLL);
  102984:	e3a0000a 	mov	r0, #10
  102988:	ebfffb8c 	bl	1017c0 <alt_clk_pll_source_get>
  10298c:	e1a03000 	mov	r3, r0
  102990:	e54b3005 	strb	r3, [fp, #-5]
        break;
  102994:	ea00017d 	b	102f90 <alt_clk_source_get+0x77c>
    case ALT_CLK_SDRAM_PLL:
        ret = alt_clk_pll_source_get(ALT_CLK_SDRAM_PLL);
  102998:	e3a0000b 	mov	r0, #11
  10299c:	ebfffb87 	bl	1017c0 <alt_clk_pll_source_get>
  1029a0:	e1a03000 	mov	r3, r0
  1029a4:	e54b3005 	strb	r3, [fp, #-5]
        break;
  1029a8:	ea000178 	b	102f90 <alt_clk_source_get+0x77c>
    case ALT_CLK_MAIN_PLL_C2:
    case ALT_CLK_MAIN_PLL_C3:
    case ALT_CLK_MAIN_PLL_C4:
    case ALT_CLK_MAIN_PLL_C5:
        /* check bypass, return either osc1 or PLL ID */
        ret = (alt_clk_pll_is_bypassed(ALT_CLK_MAIN_PLL) == ALT_E_TRUE) ?
  1029ac:	e3a00009 	mov	r0, #9
  1029b0:	ebfffb39 	bl	10169c <alt_clk_pll_is_bypassed>
  1029b4:	e1a03000 	mov	r3, r0
  1029b8:	e3530001 	cmp	r3, #1
  1029bc:	1a000001 	bne	1029c8 <alt_clk_source_get+0x1b4>
  1029c0:	e3a03000 	mov	r3, #0
  1029c4:	ea000000 	b	1029cc <alt_clk_source_get+0x1b8>
  1029c8:	e3a03009 	mov	r3, #9
  1029cc:	e54b3005 	strb	r3, [fp, #-5]
            ALT_CLK_IN_PIN_OSC1 : ALT_CLK_MAIN_PLL;
        break;
  1029d0:	ea00016e 	b	102f90 <alt_clk_source_get+0x77c>

    case ALT_CLK_MPU_PERIPH:
    case ALT_CLK_MPU_L2_RAM:
    case ALT_CLK_MPU:
        ret = (alt_clk_pll_is_bypassed(ALT_CLK_MAIN_PLL) == ALT_E_TRUE) ?
  1029d4:	e3a00009 	mov	r0, #9
  1029d8:	ebfffb2f 	bl	10169c <alt_clk_pll_is_bypassed>
  1029dc:	e1a03000 	mov	r3, r0
  1029e0:	e3530001 	cmp	r3, #1
  1029e4:	1a000001 	bne	1029f0 <alt_clk_source_get+0x1dc>
  1029e8:	e3a03000 	mov	r3, #0
  1029ec:	ea000000 	b	1029f4 <alt_clk_source_get+0x1e0>
  1029f0:	e3a0300d 	mov	r3, #13
  1029f4:	e54b3005 	strb	r3, [fp, #-5]
            ALT_CLK_IN_PIN_OSC1 : ALT_CLK_MAIN_PLL_C0;
        break;
  1029f8:	ea000164 	b	102f90 <alt_clk_source_get+0x77c>

    case ALT_CLK_L4_MAIN:
    case ALT_CLK_L3_MAIN:
    case ALT_CLK_L3_MP:
    case ALT_CLK_L3_SP:
        ret = (alt_clk_pll_is_bypassed(ALT_CLK_MAIN_PLL) == ALT_E_TRUE) ?
  1029fc:	e3a00009 	mov	r0, #9
  102a00:	ebfffb25 	bl	10169c <alt_clk_pll_is_bypassed>
  102a04:	e1a03000 	mov	r3, r0
  102a08:	e3530001 	cmp	r3, #1
  102a0c:	1a000001 	bne	102a18 <alt_clk_source_get+0x204>
  102a10:	e3a03000 	mov	r3, #0
  102a14:	ea000000 	b	102a1c <alt_clk_source_get+0x208>
  102a18:	e3a0300e 	mov	r3, #14
  102a1c:	e54b3005 	strb	r3, [fp, #-5]
            ALT_CLK_IN_PIN_OSC1 : ALT_CLK_MAIN_PLL_C1;
        break;
  102a20:	ea00015a 	b	102f90 <alt_clk_source_get+0x77c>

    case ALT_CLK_L4_MP:
        /* read the state of the L4_mp source bit */
        if ((ALT_CLKMGR_MAINPLL_L4SRC_L4MP_GET(alt_read_word(ALT_CLKMGR_MAINPLL_L4SRC_ADDR)))
  102a24:	e3043070 	movw	r3, #16496	; 0x4070
  102a28:	e34f3fd0 	movt	r3, #65488	; 0xffd0
  102a2c:	e5933000 	ldr	r3, [r3]
  102a30:	e2033001 	and	r3, r3, #1
  102a34:	e3530000 	cmp	r3, #0
  102a38:	1a000009 	bne	102a64 <alt_clk_source_get+0x250>
            == ALT_CLKMGR_MAINPLL_L4SRC_L4MP_E_MAINPLL)
        {
            ret = (alt_clk_pll_is_bypassed(ALT_CLK_MAIN_PLL) == ALT_E_TRUE) ?
  102a3c:	e3a00009 	mov	r0, #9
  102a40:	ebfffb15 	bl	10169c <alt_clk_pll_is_bypassed>
  102a44:	e1a03000 	mov	r3, r0
  102a48:	e3530001 	cmp	r3, #1
  102a4c:	1a000001 	bne	102a58 <alt_clk_source_get+0x244>
  102a50:	e3a03000 	mov	r3, #0
  102a54:	ea000000 	b	102a5c <alt_clk_source_get+0x248>
  102a58:	e3a0300e 	mov	r3, #14
  102a5c:	e54b3005 	strb	r3, [fp, #-5]
        {
            /* if the clock comes from periph_base_clk */
            ret = (alt_clk_pll_is_bypassed(ALT_CLK_PERIPHERAL_PLL) == ALT_E_TRUE) ?
                alt_clk_pll_source_get(ALT_CLK_PERIPHERAL_PLL) : ALT_CLK_PERIPHERAL_PLL_C4;
        }
        break;
  102a60:	ea00014a 	b	102f90 <alt_clk_source_get+0x77c>
                ALT_CLK_IN_PIN_OSC1 : ALT_CLK_MAIN_PLL_C1;
        }
        else
        {
            /* if the clock comes from periph_base_clk */
            ret = (alt_clk_pll_is_bypassed(ALT_CLK_PERIPHERAL_PLL) == ALT_E_TRUE) ?
  102a64:	e3a0000a 	mov	r0, #10
  102a68:	ebfffb0b 	bl	10169c <alt_clk_pll_is_bypassed>
  102a6c:	e1a03000 	mov	r3, r0
  102a70:	e3530001 	cmp	r3, #1
  102a74:	1a000003 	bne	102a88 <alt_clk_source_get+0x274>
  102a78:	e3a0000a 	mov	r0, #10
  102a7c:	ebfffb4f 	bl	1017c0 <alt_clk_pll_source_get>
  102a80:	e1a03000 	mov	r3, r0
  102a84:	ea000000 	b	102a8c <alt_clk_source_get+0x278>
  102a88:	e3a03029 	mov	r3, #41	; 0x29
  102a8c:	e54b3005 	strb	r3, [fp, #-5]
                alt_clk_pll_source_get(ALT_CLK_PERIPHERAL_PLL) : ALT_CLK_PERIPHERAL_PLL_C4;
        }
        break;
  102a90:	ea00013e 	b	102f90 <alt_clk_source_get+0x77c>

    case ALT_CLK_L4_SP:
        /* read the state of the source bit */
        if ((ALT_CLKMGR_MAINPLL_L4SRC_L4SP_GET(alt_read_word(ALT_CLKMGR_MAINPLL_L4SRC_ADDR)))
  102a94:	e3043070 	movw	r3, #16496	; 0x4070
  102a98:	e34f3fd0 	movt	r3, #65488	; 0xffd0
  102a9c:	e5933000 	ldr	r3, [r3]
  102aa0:	e2033002 	and	r3, r3, #2
  102aa4:	e1a030a3 	lsr	r3, r3, #1
  102aa8:	e3530000 	cmp	r3, #0
  102aac:	1a000009 	bne	102ad8 <alt_clk_source_get+0x2c4>
            == ALT_CLKMGR_MAINPLL_L4SRC_L4SP_E_MAINPLL)
        {
            ret = (alt_clk_pll_is_bypassed(ALT_CLK_MAIN_PLL) == ALT_E_TRUE) ?
  102ab0:	e3a00009 	mov	r0, #9
  102ab4:	ebfffaf8 	bl	10169c <alt_clk_pll_is_bypassed>
  102ab8:	e1a03000 	mov	r3, r0
  102abc:	e3530001 	cmp	r3, #1
  102ac0:	1a000001 	bne	102acc <alt_clk_source_get+0x2b8>
  102ac4:	e3a03000 	mov	r3, #0
  102ac8:	ea000000 	b	102ad0 <alt_clk_source_get+0x2bc>
  102acc:	e3a0300e 	mov	r3, #14
  102ad0:	e54b3005 	strb	r3, [fp, #-5]
        {
            /* if the clock comes from periph_base_clk */
            ret = (alt_clk_pll_is_bypassed(ALT_CLK_PERIPHERAL_PLL) == ALT_E_TRUE) ?
                alt_clk_pll_source_get(ALT_CLK_PERIPHERAL_PLL) : ALT_CLK_PERIPHERAL_PLL_C4;
        }
        break;
  102ad4:	ea00012d 	b	102f90 <alt_clk_source_get+0x77c>
                ALT_CLK_IN_PIN_OSC1 : ALT_CLK_MAIN_PLL_C1;
        }
        else
        {
            /* if the clock comes from periph_base_clk */
            ret = (alt_clk_pll_is_bypassed(ALT_CLK_PERIPHERAL_PLL) == ALT_E_TRUE) ?
  102ad8:	e3a0000a 	mov	r0, #10
  102adc:	ebfffaee 	bl	10169c <alt_clk_pll_is_bypassed>
  102ae0:	e1a03000 	mov	r3, r0
  102ae4:	e3530001 	cmp	r3, #1
  102ae8:	1a000003 	bne	102afc <alt_clk_source_get+0x2e8>
  102aec:	e3a0000a 	mov	r0, #10
  102af0:	ebfffb32 	bl	1017c0 <alt_clk_pll_source_get>
  102af4:	e1a03000 	mov	r3, r0
  102af8:	ea000000 	b	102b00 <alt_clk_source_get+0x2ec>
  102afc:	e3a03029 	mov	r3, #41	; 0x29
  102b00:	e54b3005 	strb	r3, [fp, #-5]
                alt_clk_pll_source_get(ALT_CLK_PERIPHERAL_PLL) : ALT_CLK_PERIPHERAL_PLL_C4;
        }
        break;
  102b04:	ea000121 	b	102f90 <alt_clk_source_get+0x77c>
    case ALT_CLK_DBG_BASE:
    case ALT_CLK_DBG_AT:
    case ALT_CLK_DBG_TRACE:
    case ALT_CLK_DBG_TIMER:
    case ALT_CLK_DBG:
        ret = (alt_clk_pll_is_bypassed(ALT_CLK_MAIN_PLL) == ALT_E_TRUE) ?
  102b08:	e3a00009 	mov	r0, #9
  102b0c:	ebfffae2 	bl	10169c <alt_clk_pll_is_bypassed>
  102b10:	e1a03000 	mov	r3, r0
  102b14:	e3530001 	cmp	r3, #1
  102b18:	1a000001 	bne	102b24 <alt_clk_source_get+0x310>
  102b1c:	e3a0300c 	mov	r3, #12
  102b20:	ea000000 	b	102b28 <alt_clk_source_get+0x314>
  102b24:	e3a0300f 	mov	r3, #15
  102b28:	e54b3005 	strb	r3, [fp, #-5]
            ALT_CLK_OSC1 : ALT_CLK_MAIN_PLL_C2;
        break;
  102b2c:	ea000117 	b	102f90 <alt_clk_source_get+0x77c>
    case ALT_CLK_MAIN_QSPI:
        ret = (alt_clk_pll_is_bypassed(ALT_CLK_MAIN_PLL) == ALT_E_TRUE) ?
  102b30:	e3a00009 	mov	r0, #9
  102b34:	ebfffad8 	bl	10169c <alt_clk_pll_is_bypassed>
  102b38:	e1a03000 	mov	r3, r0
  102b3c:	e3530001 	cmp	r3, #1
  102b40:	1a000001 	bne	102b4c <alt_clk_source_get+0x338>
  102b44:	e3a0300c 	mov	r3, #12
  102b48:	ea000000 	b	102b50 <alt_clk_source_get+0x33c>
  102b4c:	e3a03010 	mov	r3, #16
  102b50:	e54b3005 	strb	r3, [fp, #-5]
            ALT_CLK_OSC1 : ALT_CLK_MAIN_PLL_C3;
        break;
  102b54:	ea00010d 	b	102f90 <alt_clk_source_get+0x77c>
    case ALT_CLK_MAIN_NAND_SDMMC:
        ret = (alt_clk_pll_is_bypassed(ALT_CLK_MAIN_PLL) == ALT_E_TRUE) ?
  102b58:	e3a00009 	mov	r0, #9
  102b5c:	ebffface 	bl	10169c <alt_clk_pll_is_bypassed>
  102b60:	e1a03000 	mov	r3, r0
  102b64:	e3530001 	cmp	r3, #1
  102b68:	1a000001 	bne	102b74 <alt_clk_source_get+0x360>
  102b6c:	e3a0300c 	mov	r3, #12
  102b70:	ea000000 	b	102b78 <alt_clk_source_get+0x364>
  102b74:	e3a03011 	mov	r3, #17
  102b78:	e54b3005 	strb	r3, [fp, #-5]
            ALT_CLK_OSC1 : ALT_CLK_MAIN_PLL_C4;
        break;
  102b7c:	ea000103 	b	102f90 <alt_clk_source_get+0x77c>
    case ALT_CLK_CFG:
    case ALT_CLK_H2F_USER0:
        ret = (alt_clk_pll_is_bypassed(ALT_CLK_MAIN_PLL) == ALT_E_TRUE) ?
  102b80:	e3a00009 	mov	r0, #9
  102b84:	ebfffac4 	bl	10169c <alt_clk_pll_is_bypassed>
  102b88:	e1a03000 	mov	r3, r0
  102b8c:	e3530001 	cmp	r3, #1
  102b90:	1a000001 	bne	102b9c <alt_clk_source_get+0x388>
  102b94:	e3a0300c 	mov	r3, #12
  102b98:	ea000000 	b	102ba0 <alt_clk_source_get+0x38c>
  102b9c:	e3a03012 	mov	r3, #18
  102ba0:	e54b3005 	strb	r3, [fp, #-5]
            ALT_CLK_OSC1 : ALT_CLK_MAIN_PLL_C5;
        break;
  102ba4:	ea0000f9 	b	102f90 <alt_clk_source_get+0x77c>
    case ALT_CLK_PERIPHERAL_PLL_C2:
    case ALT_CLK_PERIPHERAL_PLL_C3:
    case ALT_CLK_PERIPHERAL_PLL_C4:
    case ALT_CLK_PERIPHERAL_PLL_C5:
        /* if the clock comes from periph_base_clk */
        ret = (alt_clk_pll_is_bypassed(ALT_CLK_PERIPHERAL_PLL) == ALT_E_TRUE) ?
  102ba8:	e3a0000a 	mov	r0, #10
  102bac:	ebfffaba 	bl	10169c <alt_clk_pll_is_bypassed>
  102bb0:	e1a03000 	mov	r3, r0
  102bb4:	e3530001 	cmp	r3, #1
  102bb8:	1a000003 	bne	102bcc <alt_clk_source_get+0x3b8>
  102bbc:	e3a0000a 	mov	r0, #10
  102bc0:	ebfffafe 	bl	1017c0 <alt_clk_pll_source_get>
  102bc4:	e1a03000 	mov	r3, r0
  102bc8:	ea000000 	b	102bd0 <alt_clk_source_get+0x3bc>
  102bcc:	e3a0300a 	mov	r3, #10
  102bd0:	e54b3005 	strb	r3, [fp, #-5]
            alt_clk_pll_source_get(ALT_CLK_PERIPHERAL_PLL) : ALT_CLK_PERIPHERAL_PLL;
        break;
  102bd4:	ea0000ed 	b	102f90 <alt_clk_source_get+0x77c>

    case ALT_CLK_EMAC0:
        ret = (alt_clk_pll_is_bypassed(ALT_CLK_PERIPHERAL_PLL) == ALT_E_TRUE) ?
  102bd8:	e3a0000a 	mov	r0, #10
  102bdc:	ebfffaae 	bl	10169c <alt_clk_pll_is_bypassed>
  102be0:	e1a03000 	mov	r3, r0
  102be4:	e3530001 	cmp	r3, #1
  102be8:	1a000003 	bne	102bfc <alt_clk_source_get+0x3e8>
  102bec:	e3a0000a 	mov	r0, #10
  102bf0:	ebfffaf2 	bl	1017c0 <alt_clk_pll_source_get>
  102bf4:	e1a03000 	mov	r3, r0
  102bf8:	ea000000 	b	102c00 <alt_clk_source_get+0x3ec>
  102bfc:	e3a03025 	mov	r3, #37	; 0x25
  102c00:	e54b3005 	strb	r3, [fp, #-5]
            alt_clk_pll_source_get(ALT_CLK_PERIPHERAL_PLL) :  ALT_CLK_PERIPHERAL_PLL_C0;
        break;
  102c04:	ea0000e1 	b	102f90 <alt_clk_source_get+0x77c>

    case ALT_CLK_EMAC1:
        ret = (alt_clk_pll_is_bypassed(ALT_CLK_PERIPHERAL_PLL) == ALT_E_TRUE) ?
  102c08:	e3a0000a 	mov	r0, #10
  102c0c:	ebfffaa2 	bl	10169c <alt_clk_pll_is_bypassed>
  102c10:	e1a03000 	mov	r3, r0
  102c14:	e3530001 	cmp	r3, #1
  102c18:	1a000003 	bne	102c2c <alt_clk_source_get+0x418>
  102c1c:	e3a0000a 	mov	r0, #10
  102c20:	ebfffae6 	bl	1017c0 <alt_clk_pll_source_get>
  102c24:	e1a03000 	mov	r3, r0
  102c28:	ea000000 	b	102c30 <alt_clk_source_get+0x41c>
  102c2c:	e3a03026 	mov	r3, #38	; 0x26
  102c30:	e54b3005 	strb	r3, [fp, #-5]
            alt_clk_pll_source_get(ALT_CLK_PERIPHERAL_PLL) :  ALT_CLK_PERIPHERAL_PLL_C1;
        break;
  102c34:	ea0000d5 	b	102f90 <alt_clk_source_get+0x77c>
    case ALT_CLK_USB_MP:
    case ALT_CLK_SPI_M:
    case ALT_CLK_CAN0:
    case ALT_CLK_CAN1:
    case ALT_CLK_GPIO_DB:
        ret = (alt_clk_pll_is_bypassed(ALT_CLK_PERIPHERAL_PLL) == ALT_E_TRUE) ?
  102c38:	e3a0000a 	mov	r0, #10
  102c3c:	ebfffa96 	bl	10169c <alt_clk_pll_is_bypassed>
  102c40:	e1a03000 	mov	r3, r0
  102c44:	e3530001 	cmp	r3, #1
  102c48:	1a000003 	bne	102c5c <alt_clk_source_get+0x448>
  102c4c:	e3a0000a 	mov	r0, #10
  102c50:	ebfffada 	bl	1017c0 <alt_clk_pll_source_get>
  102c54:	e1a03000 	mov	r3, r0
  102c58:	ea000000 	b	102c60 <alt_clk_source_get+0x44c>
  102c5c:	e3a03029 	mov	r3, #41	; 0x29
  102c60:	e54b3005 	strb	r3, [fp, #-5]
            alt_clk_pll_source_get(ALT_CLK_PERIPHERAL_PLL) :  ALT_CLK_PERIPHERAL_PLL_C4;
        break;
  102c64:	ea0000c9 	b	102f90 <alt_clk_source_get+0x77c>

    case ALT_CLK_H2F_USER1:
        ret = (alt_clk_pll_is_bypassed(ALT_CLK_PERIPHERAL_PLL) == ALT_E_TRUE) ?
  102c68:	e3a0000a 	mov	r0, #10
  102c6c:	ebfffa8a 	bl	10169c <alt_clk_pll_is_bypassed>
  102c70:	e1a03000 	mov	r3, r0
  102c74:	e3530001 	cmp	r3, #1
  102c78:	1a000003 	bne	102c8c <alt_clk_source_get+0x478>
  102c7c:	e3a0000a 	mov	r0, #10
  102c80:	ebffface 	bl	1017c0 <alt_clk_pll_source_get>
  102c84:	e1a03000 	mov	r3, r0
  102c88:	ea000000 	b	102c90 <alt_clk_source_get+0x47c>
  102c8c:	e3a0302a 	mov	r3, #42	; 0x2a
  102c90:	e54b3005 	strb	r3, [fp, #-5]
            alt_clk_pll_source_get(ALT_CLK_PERIPHERAL_PLL) :  ALT_CLK_PERIPHERAL_PLL_C5;
        break;
  102c94:	ea0000bd 	b	102f90 <alt_clk_source_get+0x77c>

    case ALT_CLK_SDMMC:
        temp = ALT_CLKMGR_PERPLL_SRC_SDMMC_GET(alt_read_word(ALT_CLKMGR_PERPLL_SRC_ADDR));
  102c98:	e30430ac 	movw	r3, #16556	; 0x40ac
  102c9c:	e34f3fd0 	movt	r3, #65488	; 0xffd0
  102ca0:	e5933000 	ldr	r3, [r3]
  102ca4:	e2033003 	and	r3, r3, #3
  102ca8:	e50b300c 	str	r3, [fp, #-12]
        if (temp == ALT_CLKMGR_PERPLL_SRC_SDMMC_E_F2S_PERIPH_REF_CLK)
  102cac:	e51b300c 	ldr	r3, [fp, #-12]
  102cb0:	e3530000 	cmp	r3, #0
  102cb4:	1a000002 	bne	102cc4 <alt_clk_source_get+0x4b0>
        {
            ret = ALT_CLK_F2H_PERIPH_REF;
  102cb8:	e3a03002 	mov	r3, #2
  102cbc:	e54b3005 	strb	r3, [fp, #-5]
        else if (temp == ALT_CLKMGR_PERPLL_SRC_SDMMC_E_PERIPH_NAND_CLK)
        {
            ret = (alt_clk_pll_is_bypassed(ALT_CLK_PERIPHERAL_PLL) == ALT_E_TRUE) ?
                alt_clk_pll_source_get(ALT_CLK_PERIPHERAL_PLL) :  ALT_CLK_PERIPHERAL_PLL_C3;
        }
        break;
  102cc0:	ea0000ad 	b	102f7c <alt_clk_source_get+0x768>
        temp = ALT_CLKMGR_PERPLL_SRC_SDMMC_GET(alt_read_word(ALT_CLKMGR_PERPLL_SRC_ADDR));
        if (temp == ALT_CLKMGR_PERPLL_SRC_SDMMC_E_F2S_PERIPH_REF_CLK)
        {
            ret = ALT_CLK_F2H_PERIPH_REF;
        }
        else if (temp == ALT_CLKMGR_PERPLL_SRC_SDMMC_E_MAIN_NAND_CLK)
  102cc4:	e51b300c 	ldr	r3, [fp, #-12]
  102cc8:	e3530001 	cmp	r3, #1
  102ccc:	1a000009 	bne	102cf8 <alt_clk_source_get+0x4e4>
        {
            ret = (alt_clk_pll_is_bypassed(ALT_CLK_MAIN_PLL) == ALT_E_TRUE) ?
  102cd0:	e3a00009 	mov	r0, #9
  102cd4:	ebfffa70 	bl	10169c <alt_clk_pll_is_bypassed>
  102cd8:	e1a03000 	mov	r3, r0
  102cdc:	e3530001 	cmp	r3, #1
  102ce0:	1a000001 	bne	102cec <alt_clk_source_get+0x4d8>
  102ce4:	e3a03000 	mov	r3, #0
  102ce8:	ea000000 	b	102cf0 <alt_clk_source_get+0x4dc>
  102cec:	e3a03011 	mov	r3, #17
  102cf0:	e54b3005 	strb	r3, [fp, #-5]
        else if (temp == ALT_CLKMGR_PERPLL_SRC_SDMMC_E_PERIPH_NAND_CLK)
        {
            ret = (alt_clk_pll_is_bypassed(ALT_CLK_PERIPHERAL_PLL) == ALT_E_TRUE) ?
                alt_clk_pll_source_get(ALT_CLK_PERIPHERAL_PLL) :  ALT_CLK_PERIPHERAL_PLL_C3;
        }
        break;
  102cf4:	ea0000a0 	b	102f7c <alt_clk_source_get+0x768>
        else if (temp == ALT_CLKMGR_PERPLL_SRC_SDMMC_E_MAIN_NAND_CLK)
        {
            ret = (alt_clk_pll_is_bypassed(ALT_CLK_MAIN_PLL) == ALT_E_TRUE) ?
                ALT_CLK_IN_PIN_OSC1 : ALT_CLK_MAIN_PLL_C4;
        }
        else if (temp == ALT_CLKMGR_PERPLL_SRC_SDMMC_E_PERIPH_NAND_CLK)
  102cf8:	e51b300c 	ldr	r3, [fp, #-12]
  102cfc:	e3530002 	cmp	r3, #2
  102d00:	1a00009d 	bne	102f7c <alt_clk_source_get+0x768>
        {
            ret = (alt_clk_pll_is_bypassed(ALT_CLK_PERIPHERAL_PLL) == ALT_E_TRUE) ?
  102d04:	e3a0000a 	mov	r0, #10
  102d08:	ebfffa63 	bl	10169c <alt_clk_pll_is_bypassed>
  102d0c:	e1a03000 	mov	r3, r0
  102d10:	e3530001 	cmp	r3, #1
  102d14:	1a000003 	bne	102d28 <alt_clk_source_get+0x514>
  102d18:	e3a0000a 	mov	r0, #10
  102d1c:	ebfffaa7 	bl	1017c0 <alt_clk_pll_source_get>
  102d20:	e1a03000 	mov	r3, r0
  102d24:	ea000000 	b	102d2c <alt_clk_source_get+0x518>
  102d28:	e3a03028 	mov	r3, #40	; 0x28
  102d2c:	e54b3005 	strb	r3, [fp, #-5]
                alt_clk_pll_source_get(ALT_CLK_PERIPHERAL_PLL) :  ALT_CLK_PERIPHERAL_PLL_C3;
        }
        break;
  102d30:	ea000091 	b	102f7c <alt_clk_source_get+0x768>

    case ALT_CLK_NAND_X:
    case ALT_CLK_NAND:
        temp = ALT_CLKMGR_PERPLL_SRC_NAND_GET(alt_read_word(ALT_CLKMGR_PERPLL_SRC_ADDR));
  102d34:	e30430ac 	movw	r3, #16556	; 0x40ac
  102d38:	e34f3fd0 	movt	r3, #65488	; 0xffd0
  102d3c:	e5933000 	ldr	r3, [r3]
  102d40:	e203300c 	and	r3, r3, #12
  102d44:	e1a03123 	lsr	r3, r3, #2
  102d48:	e50b300c 	str	r3, [fp, #-12]
        if (temp == ALT_CLKMGR_PERPLL_SRC_NAND_E_F2S_PERIPH_REF_CLK)
  102d4c:	e51b300c 	ldr	r3, [fp, #-12]
  102d50:	e3530000 	cmp	r3, #0
  102d54:	1a000002 	bne	102d64 <alt_clk_source_get+0x550>
        {
            ret = ALT_CLK_F2H_PERIPH_REF;
  102d58:	e3a03002 	mov	r3, #2
  102d5c:	e54b3005 	strb	r3, [fp, #-5]
        else if (temp == ALT_CLKMGR_PERPLL_SRC_NAND_E_PERIPH_NAND_CLK)
        {
            ret = (alt_clk_pll_is_bypassed(ALT_CLK_PERIPHERAL_PLL) == ALT_E_TRUE) ?
                alt_clk_pll_source_get(ALT_CLK_PERIPHERAL_PLL) :  ALT_CLK_PERIPHERAL_PLL_C3;
        }
        break;
  102d60:	ea000087 	b	102f84 <alt_clk_source_get+0x770>
        temp = ALT_CLKMGR_PERPLL_SRC_NAND_GET(alt_read_word(ALT_CLKMGR_PERPLL_SRC_ADDR));
        if (temp == ALT_CLKMGR_PERPLL_SRC_NAND_E_F2S_PERIPH_REF_CLK)
        {
            ret = ALT_CLK_F2H_PERIPH_REF;
        }
        else if (temp == ALT_CLKMGR_PERPLL_SRC_NAND_E_MAIN_NAND_CLK)
  102d64:	e51b300c 	ldr	r3, [fp, #-12]
  102d68:	e3530001 	cmp	r3, #1
  102d6c:	1a000009 	bne	102d98 <alt_clk_source_get+0x584>
        {
            ret = (alt_clk_pll_is_bypassed(ALT_CLK_MAIN_PLL) == ALT_E_TRUE) ?
  102d70:	e3a00009 	mov	r0, #9
  102d74:	ebfffa48 	bl	10169c <alt_clk_pll_is_bypassed>
  102d78:	e1a03000 	mov	r3, r0
  102d7c:	e3530001 	cmp	r3, #1
  102d80:	1a000001 	bne	102d8c <alt_clk_source_get+0x578>
  102d84:	e3a03000 	mov	r3, #0
  102d88:	ea000000 	b	102d90 <alt_clk_source_get+0x57c>
  102d8c:	e3a03011 	mov	r3, #17
  102d90:	e54b3005 	strb	r3, [fp, #-5]
        else if (temp == ALT_CLKMGR_PERPLL_SRC_NAND_E_PERIPH_NAND_CLK)
        {
            ret = (alt_clk_pll_is_bypassed(ALT_CLK_PERIPHERAL_PLL) == ALT_E_TRUE) ?
                alt_clk_pll_source_get(ALT_CLK_PERIPHERAL_PLL) :  ALT_CLK_PERIPHERAL_PLL_C3;
        }
        break;
  102d94:	ea00007a 	b	102f84 <alt_clk_source_get+0x770>
        else if (temp == ALT_CLKMGR_PERPLL_SRC_NAND_E_MAIN_NAND_CLK)
        {
            ret = (alt_clk_pll_is_bypassed(ALT_CLK_MAIN_PLL) == ALT_E_TRUE) ?
                ALT_CLK_IN_PIN_OSC1 : ALT_CLK_MAIN_PLL_C4;
        }
        else if (temp == ALT_CLKMGR_PERPLL_SRC_NAND_E_PERIPH_NAND_CLK)
  102d98:	e51b300c 	ldr	r3, [fp, #-12]
  102d9c:	e3530002 	cmp	r3, #2
  102da0:	1a000077 	bne	102f84 <alt_clk_source_get+0x770>
        {
            ret = (alt_clk_pll_is_bypassed(ALT_CLK_PERIPHERAL_PLL) == ALT_E_TRUE) ?
  102da4:	e3a0000a 	mov	r0, #10
  102da8:	ebfffa3b 	bl	10169c <alt_clk_pll_is_bypassed>
  102dac:	e1a03000 	mov	r3, r0
  102db0:	e3530001 	cmp	r3, #1
  102db4:	1a000003 	bne	102dc8 <alt_clk_source_get+0x5b4>
  102db8:	e3a0000a 	mov	r0, #10
  102dbc:	ebfffa7f 	bl	1017c0 <alt_clk_pll_source_get>
  102dc0:	e1a03000 	mov	r3, r0
  102dc4:	ea000000 	b	102dcc <alt_clk_source_get+0x5b8>
  102dc8:	e3a03028 	mov	r3, #40	; 0x28
  102dcc:	e54b3005 	strb	r3, [fp, #-5]
                alt_clk_pll_source_get(ALT_CLK_PERIPHERAL_PLL) :  ALT_CLK_PERIPHERAL_PLL_C3;
        }
        break;
  102dd0:	ea00006b 	b	102f84 <alt_clk_source_get+0x770>

    case ALT_CLK_QSPI:
        temp = ALT_CLKMGR_PERPLL_SRC_QSPI_GET(alt_read_word(ALT_CLKMGR_PERPLL_SRC_ADDR));
  102dd4:	e30430ac 	movw	r3, #16556	; 0x40ac
  102dd8:	e34f3fd0 	movt	r3, #65488	; 0xffd0
  102ddc:	e5933000 	ldr	r3, [r3]
  102de0:	e2033030 	and	r3, r3, #48	; 0x30
  102de4:	e1a03223 	lsr	r3, r3, #4
  102de8:	e50b300c 	str	r3, [fp, #-12]
        if (temp == ALT_CLKMGR_PERPLL_SRC_QSPI_E_F2S_PERIPH_REF_CLK)
  102dec:	e51b300c 	ldr	r3, [fp, #-12]
  102df0:	e3530000 	cmp	r3, #0
  102df4:	1a000002 	bne	102e04 <alt_clk_source_get+0x5f0>
        {
            ret = ALT_CLK_F2H_PERIPH_REF;
  102df8:	e3a03002 	mov	r3, #2
  102dfc:	e54b3005 	strb	r3, [fp, #-5]
        else if (temp == ALT_CLKMGR_PERPLL_SRC_QSPI_E_PERIPH_QSPI_CLK)
        {
            ret = (alt_clk_pll_is_bypassed(ALT_CLK_PERIPHERAL_PLL) == ALT_E_TRUE) ?
                alt_clk_pll_source_get(ALT_CLK_PERIPHERAL_PLL) :  ALT_CLK_PERIPHERAL_PLL_C2;
        }
        break;
  102e00:	ea000061 	b	102f8c <alt_clk_source_get+0x778>
        temp = ALT_CLKMGR_PERPLL_SRC_QSPI_GET(alt_read_word(ALT_CLKMGR_PERPLL_SRC_ADDR));
        if (temp == ALT_CLKMGR_PERPLL_SRC_QSPI_E_F2S_PERIPH_REF_CLK)
        {
            ret = ALT_CLK_F2H_PERIPH_REF;
        }
        else if (temp == ALT_CLKMGR_PERPLL_SRC_QSPI_E_MAIN_QSPI_CLK)
  102e04:	e51b300c 	ldr	r3, [fp, #-12]
  102e08:	e3530001 	cmp	r3, #1
  102e0c:	1a000009 	bne	102e38 <alt_clk_source_get+0x624>
        {
            ret = (alt_clk_pll_is_bypassed(ALT_CLK_MAIN_PLL) == ALT_E_TRUE) ?
  102e10:	e3a00009 	mov	r0, #9
  102e14:	ebfffa20 	bl	10169c <alt_clk_pll_is_bypassed>
  102e18:	e1a03000 	mov	r3, r0
  102e1c:	e3530001 	cmp	r3, #1
  102e20:	1a000001 	bne	102e2c <alt_clk_source_get+0x618>
  102e24:	e3a03000 	mov	r3, #0
  102e28:	ea000000 	b	102e30 <alt_clk_source_get+0x61c>
  102e2c:	e3a03010 	mov	r3, #16
  102e30:	e54b3005 	strb	r3, [fp, #-5]
        else if (temp == ALT_CLKMGR_PERPLL_SRC_QSPI_E_PERIPH_QSPI_CLK)
        {
            ret = (alt_clk_pll_is_bypassed(ALT_CLK_PERIPHERAL_PLL) == ALT_E_TRUE) ?
                alt_clk_pll_source_get(ALT_CLK_PERIPHERAL_PLL) :  ALT_CLK_PERIPHERAL_PLL_C2;
        }
        break;
  102e34:	ea000054 	b	102f8c <alt_clk_source_get+0x778>
        else if (temp == ALT_CLKMGR_PERPLL_SRC_QSPI_E_MAIN_QSPI_CLK)
        {
            ret = (alt_clk_pll_is_bypassed(ALT_CLK_MAIN_PLL) == ALT_E_TRUE) ?
                ALT_CLK_IN_PIN_OSC1 : ALT_CLK_MAIN_PLL_C3;
        }
        else if (temp == ALT_CLKMGR_PERPLL_SRC_QSPI_E_PERIPH_QSPI_CLK)
  102e38:	e51b300c 	ldr	r3, [fp, #-12]
  102e3c:	e3530002 	cmp	r3, #2
  102e40:	1a000051 	bne	102f8c <alt_clk_source_get+0x778>
        {
            ret = (alt_clk_pll_is_bypassed(ALT_CLK_PERIPHERAL_PLL) == ALT_E_TRUE) ?
  102e44:	e3a0000a 	mov	r0, #10
  102e48:	ebfffa13 	bl	10169c <alt_clk_pll_is_bypassed>
  102e4c:	e1a03000 	mov	r3, r0
  102e50:	e3530001 	cmp	r3, #1
  102e54:	1a000003 	bne	102e68 <alt_clk_source_get+0x654>
  102e58:	e3a0000a 	mov	r0, #10
  102e5c:	ebfffa57 	bl	1017c0 <alt_clk_pll_source_get>
  102e60:	e1a03000 	mov	r3, r0
  102e64:	ea000000 	b	102e6c <alt_clk_source_get+0x658>
  102e68:	e3a03027 	mov	r3, #39	; 0x27
  102e6c:	e54b3005 	strb	r3, [fp, #-5]
                alt_clk_pll_source_get(ALT_CLK_PERIPHERAL_PLL) :  ALT_CLK_PERIPHERAL_PLL_C2;
        }
        break;
  102e70:	ea000045 	b	102f8c <alt_clk_source_get+0x778>
    case ALT_CLK_SDRAM_PLL_C1:
    case ALT_CLK_SDRAM_PLL_C2:
    case ALT_CLK_SDRAM_PLL_C3:
    case ALT_CLK_SDRAM_PLL_C4:
    case ALT_CLK_SDRAM_PLL_C5:
        ret = (alt_clk_pll_is_bypassed(ALT_CLK_SDRAM_PLL) == ALT_E_TRUE) ?
  102e74:	e3a0000b 	mov	r0, #11
  102e78:	ebfffa07 	bl	10169c <alt_clk_pll_is_bypassed>
  102e7c:	e1a03000 	mov	r3, r0
  102e80:	e3530001 	cmp	r3, #1
  102e84:	1a000003 	bne	102e98 <alt_clk_source_get+0x684>
  102e88:	e3a0000b 	mov	r0, #11
  102e8c:	ebfffa4b 	bl	1017c0 <alt_clk_pll_source_get>
  102e90:	e1a03000 	mov	r3, r0
  102e94:	ea000000 	b	102e9c <alt_clk_source_get+0x688>
  102e98:	e3a0300b 	mov	r3, #11
  102e9c:	e54b3005 	strb	r3, [fp, #-5]
            alt_clk_pll_source_get(ALT_CLK_SDRAM_PLL) :  ALT_CLK_SDRAM_PLL;
        break;
  102ea0:	ea00003a 	b	102f90 <alt_clk_source_get+0x77c>
    case ALT_CLK_DDR_DQS:
        ret = (alt_clk_pll_is_bypassed(ALT_CLK_SDRAM_PLL) == ALT_E_TRUE) ?
  102ea4:	e3a0000b 	mov	r0, #11
  102ea8:	ebfff9fb 	bl	10169c <alt_clk_pll_is_bypassed>
  102eac:	e1a03000 	mov	r3, r0
  102eb0:	e3530001 	cmp	r3, #1
  102eb4:	1a000003 	bne	102ec8 <alt_clk_source_get+0x6b4>
  102eb8:	e3a0000b 	mov	r0, #11
  102ebc:	ebfffa3f 	bl	1017c0 <alt_clk_pll_source_get>
  102ec0:	e1a03000 	mov	r3, r0
  102ec4:	ea000000 	b	102ecc <alt_clk_source_get+0x6b8>
  102ec8:	e3a03037 	mov	r3, #55	; 0x37
  102ecc:	e54b3005 	strb	r3, [fp, #-5]
            alt_clk_pll_source_get(ALT_CLK_SDRAM_PLL) :  ALT_CLK_SDRAM_PLL_C0;
        break;
  102ed0:	ea00002e 	b	102f90 <alt_clk_source_get+0x77c>
    case ALT_CLK_DDR_2X_DQS:
        ret = (alt_clk_pll_is_bypassed(ALT_CLK_SDRAM_PLL) == ALT_E_TRUE) ?
  102ed4:	e3a0000b 	mov	r0, #11
  102ed8:	ebfff9ef 	bl	10169c <alt_clk_pll_is_bypassed>
  102edc:	e1a03000 	mov	r3, r0
  102ee0:	e3530001 	cmp	r3, #1
  102ee4:	1a000003 	bne	102ef8 <alt_clk_source_get+0x6e4>
  102ee8:	e3a0000b 	mov	r0, #11
  102eec:	ebfffa33 	bl	1017c0 <alt_clk_pll_source_get>
  102ef0:	e1a03000 	mov	r3, r0
  102ef4:	ea000000 	b	102efc <alt_clk_source_get+0x6e8>
  102ef8:	e3a03038 	mov	r3, #56	; 0x38
  102efc:	e54b3005 	strb	r3, [fp, #-5]
            alt_clk_pll_source_get(ALT_CLK_SDRAM_PLL) :  ALT_CLK_SDRAM_PLL_C1;
        break;
  102f00:	ea000022 	b	102f90 <alt_clk_source_get+0x77c>
    case ALT_CLK_DDR_DQ:
        ret = (alt_clk_pll_is_bypassed(ALT_CLK_SDRAM_PLL) == ALT_E_TRUE) ?
  102f04:	e3a0000b 	mov	r0, #11
  102f08:	ebfff9e3 	bl	10169c <alt_clk_pll_is_bypassed>
  102f0c:	e1a03000 	mov	r3, r0
  102f10:	e3530001 	cmp	r3, #1
  102f14:	1a000003 	bne	102f28 <alt_clk_source_get+0x714>
  102f18:	e3a0000b 	mov	r0, #11
  102f1c:	ebfffa27 	bl	1017c0 <alt_clk_pll_source_get>
  102f20:	e1a03000 	mov	r3, r0
  102f24:	ea000000 	b	102f2c <alt_clk_source_get+0x718>
  102f28:	e3a03039 	mov	r3, #57	; 0x39
  102f2c:	e54b3005 	strb	r3, [fp, #-5]
            alt_clk_pll_source_get(ALT_CLK_SDRAM_PLL) :  ALT_CLK_SDRAM_PLL_C2;
        break;
  102f30:	ea000016 	b	102f90 <alt_clk_source_get+0x77c>
    case ALT_CLK_H2F_USER2:
        ret = (alt_clk_pll_is_bypassed(ALT_CLK_SDRAM_PLL) == ALT_E_TRUE) ?
  102f34:	e3a0000b 	mov	r0, #11
  102f38:	ebfff9d7 	bl	10169c <alt_clk_pll_is_bypassed>
  102f3c:	e1a03000 	mov	r3, r0
  102f40:	e3530001 	cmp	r3, #1
  102f44:	1a000003 	bne	102f58 <alt_clk_source_get+0x744>
  102f48:	e3a0000b 	mov	r0, #11
  102f4c:	ebfffa1b 	bl	1017c0 <alt_clk_pll_source_get>
  102f50:	e1a03000 	mov	r3, r0
  102f54:	ea000000 	b	102f5c <alt_clk_source_get+0x748>
  102f58:	e3a0303c 	mov	r3, #60	; 0x3c
  102f5c:	e54b3005 	strb	r3, [fp, #-5]
            alt_clk_pll_source_get(ALT_CLK_SDRAM_PLL) :  ALT_CLK_SDRAM_PLL_C5;
        break;
  102f60:	ea00000a 	b	102f90 <alt_clk_source_get+0x77c>
    case ALT_CLK_OUT_PIN_I2C2_SCL:
    case ALT_CLK_OUT_PIN_I2C3_SCL:
    case ALT_CLK_OUT_PIN_SPIM0:
    case ALT_CLK_OUT_PIN_SPIM1:
    case ALT_CLK_OUT_PIN_QSPI:
        ret = ALT_CLK_UNKNOWN;
  102f64:	e3a0304b 	mov	r3, #75	; 0x4b
  102f68:	e54b3005 	strb	r3, [fp, #-5]
        break;
  102f6c:	ea000007 	b	102f90 <alt_clk_source_get+0x77c>

    default:
        ret = ALT_CLK_UNKNOWN;
  102f70:	e3a0304b 	mov	r3, #75	; 0x4b
  102f74:	e54b3005 	strb	r3, [fp, #-5]
        break;
  102f78:	ea000004 	b	102f90 <alt_clk_source_get+0x77c>
        else if (temp == ALT_CLKMGR_PERPLL_SRC_SDMMC_E_PERIPH_NAND_CLK)
        {
            ret = (alt_clk_pll_is_bypassed(ALT_CLK_PERIPHERAL_PLL) == ALT_E_TRUE) ?
                alt_clk_pll_source_get(ALT_CLK_PERIPHERAL_PLL) :  ALT_CLK_PERIPHERAL_PLL_C3;
        }
        break;
  102f7c:	e1a00000 	nop			; (mov r0, r0)
  102f80:	ea000002 	b	102f90 <alt_clk_source_get+0x77c>
        else if (temp == ALT_CLKMGR_PERPLL_SRC_NAND_E_PERIPH_NAND_CLK)
        {
            ret = (alt_clk_pll_is_bypassed(ALT_CLK_PERIPHERAL_PLL) == ALT_E_TRUE) ?
                alt_clk_pll_source_get(ALT_CLK_PERIPHERAL_PLL) :  ALT_CLK_PERIPHERAL_PLL_C3;
        }
        break;
  102f84:	e1a00000 	nop			; (mov r0, r0)
  102f88:	ea000000 	b	102f90 <alt_clk_source_get+0x77c>
        else if (temp == ALT_CLKMGR_PERPLL_SRC_QSPI_E_PERIPH_QSPI_CLK)
        {
            ret = (alt_clk_pll_is_bypassed(ALT_CLK_PERIPHERAL_PLL) == ALT_E_TRUE) ?
                alt_clk_pll_source_get(ALT_CLK_PERIPHERAL_PLL) :  ALT_CLK_PERIPHERAL_PLL_C2;
        }
        break;
  102f8c:	e1a00000 	nop			; (mov r0, r0)
    default:
        ret = ALT_CLK_UNKNOWN;
        break;
    }

    return ret;
  102f90:	e55b3005 	ldrb	r3, [fp, #-5]
}
  102f94:	e1a00003 	mov	r0, r3
  102f98:	e24bd004 	sub	sp, fp, #4
  102f9c:	e8bd8800 	pop	{fp, pc}

00102fa0 <alt_clk_source_set>:
// off and back on, those are covered in other functions in this API, but it does
// verify that the clock is off before changing the divider or PLL. Note that the PLL
// must have regained phase-lock before being the bypass is disabled.
*/
ALT_STATUS_CODE alt_clk_source_set(ALT_CLK_t clk, ALT_CLK_t ref_clk)
{
  102fa0:	e52db004 	push	{fp}		; (str fp, [sp, #-4]!)
  102fa4:	e28db000 	add	fp, sp, #0
  102fa8:	e24dd014 	sub	sp, sp, #20
  102fac:	e1a03000 	mov	r3, r0
  102fb0:	e1a02001 	mov	r2, r1
  102fb4:	e54b300d 	strb	r3, [fp, #-13]
  102fb8:	e1a03002 	mov	r3, r2
  102fbc:	e54b300e 	strb	r3, [fp, #-14]
    ALT_STATUS_CODE status = ALT_E_SUCCESS;
  102fc0:	e3a03000 	mov	r3, #0
  102fc4:	e50b3008 	str	r3, [fp, #-8]
    uint32_t        temp;

    if (ALT_CLK_MAIN_PLL == clk)
  102fc8:	e55b300d 	ldrb	r3, [fp, #-13]
  102fcc:	e3530009 	cmp	r3, #9
  102fd0:	1a000008 	bne	102ff8 <alt_clk_source_set+0x58>
    {
        if ((ref_clk == ALT_CLK_IN_PIN_OSC1) || (ref_clk == ALT_CLK_OSC1))
  102fd4:	e55b300e 	ldrb	r3, [fp, #-14]
  102fd8:	e3530000 	cmp	r3, #0
  102fdc:	0a000125 	beq	103478 <alt_clk_source_set+0x4d8>
  102fe0:	e55b300e 	ldrb	r3, [fp, #-14]
  102fe4:	e353000c 	cmp	r3, #12
  102fe8:	0a000122 	beq	103478 <alt_clk_source_set+0x4d8>
        {
            /* ret = ALT_E_SUCCESS; */
        }
        else
        {
            status = ALT_E_BAD_ARG;
  102fec:	e3e03008 	mvn	r3, #8
  102ff0:	e50b3008 	str	r3, [fp, #-8]
  102ff4:	ea00011f 	b	103478 <alt_clk_source_set+0x4d8>
        }
    }
    else if (ALT_CLK_PERIPHERAL_PLL == clk)
  102ff8:	e55b300d 	ldrb	r3, [fp, #-13]
  102ffc:	e353000a 	cmp	r3, #10
  103000:	1a00002a 	bne	1030b0 <alt_clk_source_set+0x110>
    {
        /* the PLL must be bypassed before getting here */
        temp  = alt_read_word(ALT_CLKMGR_PERPLL_VCO_ADDR);
  103004:	e3043080 	movw	r3, #16512	; 0x4080
  103008:	e34f3fd0 	movt	r3, #65488	; 0xffd0
  10300c:	e5933000 	ldr	r3, [r3]
  103010:	e50b300c 	str	r3, [fp, #-12]
        temp &= ALT_CLKMGR_PERPLL_VCO_PSRC_CLR_MSK;
  103014:	e51b300c 	ldr	r3, [fp, #-12]
  103018:	e3c33503 	bic	r3, r3, #12582912	; 0xc00000
  10301c:	e50b300c 	str	r3, [fp, #-12]

        if ((ref_clk == ALT_CLK_IN_PIN_OSC1) || (ref_clk == ALT_CLK_OSC1))
  103020:	e55b300e 	ldrb	r3, [fp, #-14]
  103024:	e3530000 	cmp	r3, #0
  103028:	0a000002 	beq	103038 <alt_clk_source_set+0x98>
  10302c:	e55b300e 	ldrb	r3, [fp, #-14]
  103030:	e353000c 	cmp	r3, #12
  103034:	1a000004 	bne	10304c <alt_clk_source_set+0xac>
        {
            temp |= ALT_CLKMGR_PERPLL_VCO_PSRC_SET(ALT_CLKMGR_PERPLL_VCO_PSRC_E_EOSC1);
            alt_write_word(ALT_CLKMGR_PERPLL_VCO_ADDR, temp);
  103038:	e3043080 	movw	r3, #16512	; 0x4080
  10303c:	e34f3fd0 	movt	r3, #65488	; 0xffd0
  103040:	e51b200c 	ldr	r2, [fp, #-12]
  103044:	e5832000 	str	r2, [r3]
  103048:	ea00010a 	b	103478 <alt_clk_source_set+0x4d8>
        }
        else if (ref_clk == ALT_CLK_IN_PIN_OSC2)
  10304c:	e55b300e 	ldrb	r3, [fp, #-14]
  103050:	e3530001 	cmp	r3, #1
  103054:	1a000007 	bne	103078 <alt_clk_source_set+0xd8>
        {
            temp |= ALT_CLKMGR_PERPLL_VCO_PSRC_SET(ALT_CLKMGR_PERPLL_VCO_PSRC_E_EOSC2);
  103058:	e51b300c 	ldr	r3, [fp, #-12]
  10305c:	e3833501 	orr	r3, r3, #4194304	; 0x400000
  103060:	e50b300c 	str	r3, [fp, #-12]
            alt_write_word(ALT_CLKMGR_PERPLL_VCO_ADDR, temp);
  103064:	e3043080 	movw	r3, #16512	; 0x4080
  103068:	e34f3fd0 	movt	r3, #65488	; 0xffd0
  10306c:	e51b200c 	ldr	r2, [fp, #-12]
  103070:	e5832000 	str	r2, [r3]
  103074:	ea0000ff 	b	103478 <alt_clk_source_set+0x4d8>
        }
        else if (ref_clk == ALT_CLK_F2H_PERIPH_REF)
  103078:	e55b300e 	ldrb	r3, [fp, #-14]
  10307c:	e3530002 	cmp	r3, #2
  103080:	1a000007 	bne	1030a4 <alt_clk_source_set+0x104>
        {
            temp |= ALT_CLKMGR_PERPLL_VCO_PSRC_SET(ALT_CLKMGR_PERPLL_VCO_PSRC_E_F2S_PERIPH_REF);
  103084:	e51b300c 	ldr	r3, [fp, #-12]
  103088:	e3833502 	orr	r3, r3, #8388608	; 0x800000
  10308c:	e50b300c 	str	r3, [fp, #-12]
            alt_write_word(ALT_CLKMGR_PERPLL_VCO_ADDR, temp);
  103090:	e3043080 	movw	r3, #16512	; 0x4080
  103094:	e34f3fd0 	movt	r3, #65488	; 0xffd0
  103098:	e51b200c 	ldr	r2, [fp, #-12]
  10309c:	e5832000 	str	r2, [r3]
  1030a0:	ea0000f4 	b	103478 <alt_clk_source_set+0x4d8>
        }
        else
        {
            status = ALT_E_INV_OPTION;
  1030a4:	e3e0300a 	mvn	r3, #10
  1030a8:	e50b3008 	str	r3, [fp, #-8]
  1030ac:	ea0000f1 	b	103478 <alt_clk_source_set+0x4d8>
        }
    }
    else if (ALT_CLK_SDRAM_PLL == clk)
  1030b0:	e55b300d 	ldrb	r3, [fp, #-13]
  1030b4:	e353000b 	cmp	r3, #11
  1030b8:	1a00002a 	bne	103168 <alt_clk_source_set+0x1c8>
    {
        temp  = alt_read_word(ALT_CLKMGR_SDRPLL_VCO_ADDR);
  1030bc:	e30430c0 	movw	r3, #16576	; 0x40c0
  1030c0:	e34f3fd0 	movt	r3, #65488	; 0xffd0
  1030c4:	e5933000 	ldr	r3, [r3]
  1030c8:	e50b300c 	str	r3, [fp, #-12]
        temp &= ALT_CLKMGR_SDRPLL_VCO_SSRC_CLR_MSK;
  1030cc:	e51b300c 	ldr	r3, [fp, #-12]
  1030d0:	e3c33503 	bic	r3, r3, #12582912	; 0xc00000
  1030d4:	e50b300c 	str	r3, [fp, #-12]

        if ((ref_clk == ALT_CLK_IN_PIN_OSC1) || (ref_clk == ALT_CLK_OSC1))
  1030d8:	e55b300e 	ldrb	r3, [fp, #-14]
  1030dc:	e3530000 	cmp	r3, #0
  1030e0:	0a000002 	beq	1030f0 <alt_clk_source_set+0x150>
  1030e4:	e55b300e 	ldrb	r3, [fp, #-14]
  1030e8:	e353000c 	cmp	r3, #12
  1030ec:	1a000004 	bne	103104 <alt_clk_source_set+0x164>
        {
            temp |= ALT_CLKMGR_SDRPLL_VCO_SSRC_SET(ALT_CLKMGR_SDRPLL_VCO_SSRC_E_EOSC1);
            alt_write_word(ALT_CLKMGR_SDRPLL_VCO_ADDR, temp);
  1030f0:	e30430c0 	movw	r3, #16576	; 0x40c0
  1030f4:	e34f3fd0 	movt	r3, #65488	; 0xffd0
  1030f8:	e51b200c 	ldr	r2, [fp, #-12]
  1030fc:	e5832000 	str	r2, [r3]
  103100:	ea0000dc 	b	103478 <alt_clk_source_set+0x4d8>
        }
        else if (ref_clk == ALT_CLK_IN_PIN_OSC2)
  103104:	e55b300e 	ldrb	r3, [fp, #-14]
  103108:	e3530001 	cmp	r3, #1
  10310c:	1a000007 	bne	103130 <alt_clk_source_set+0x190>
        {
            temp |= ALT_CLKMGR_SDRPLL_VCO_SSRC_SET(ALT_CLKMGR_SDRPLL_VCO_SSRC_E_EOSC2);
  103110:	e51b300c 	ldr	r3, [fp, #-12]
  103114:	e3833501 	orr	r3, r3, #4194304	; 0x400000
  103118:	e50b300c 	str	r3, [fp, #-12]
            alt_write_word(ALT_CLKMGR_SDRPLL_VCO_ADDR, temp);
  10311c:	e30430c0 	movw	r3, #16576	; 0x40c0
  103120:	e34f3fd0 	movt	r3, #65488	; 0xffd0
  103124:	e51b200c 	ldr	r2, [fp, #-12]
  103128:	e5832000 	str	r2, [r3]
  10312c:	ea0000d1 	b	103478 <alt_clk_source_set+0x4d8>
        }
        else if (ref_clk == ALT_CLK_F2H_SDRAM_REF)
  103130:	e55b300e 	ldrb	r3, [fp, #-14]
  103134:	e3530003 	cmp	r3, #3
  103138:	1a000007 	bne	10315c <alt_clk_source_set+0x1bc>
        {
            temp |= ALT_CLKMGR_SDRPLL_VCO_SSRC_SET(ALT_CLKMGR_SDRPLL_VCO_SSRC_E_F2S_SDRAM_REF);
  10313c:	e51b300c 	ldr	r3, [fp, #-12]
  103140:	e3833502 	orr	r3, r3, #8388608	; 0x800000
  103144:	e50b300c 	str	r3, [fp, #-12]
            alt_write_word(ALT_CLKMGR_SDRPLL_VCO_ADDR, temp);
  103148:	e30430c0 	movw	r3, #16576	; 0x40c0
  10314c:	e34f3fd0 	movt	r3, #65488	; 0xffd0
  103150:	e51b200c 	ldr	r2, [fp, #-12]
  103154:	e5832000 	str	r2, [r3]
  103158:	ea0000c6 	b	103478 <alt_clk_source_set+0x4d8>
        }
        else
        {
            status = ALT_E_INV_OPTION;
  10315c:	e3e0300a 	mvn	r3, #10
  103160:	e50b3008 	str	r3, [fp, #-8]
  103164:	ea0000c3 	b	103478 <alt_clk_source_set+0x4d8>
        }
    }
    else if ( ALT_CLK_L4_MP == clk)
  103168:	e55b300d 	ldrb	r3, [fp, #-13]
  10316c:	e353001a 	cmp	r3, #26
  103170:	1a000018 	bne	1031d8 <alt_clk_source_set+0x238>
    {
        /* clock is gated off */
        if (ref_clk == ALT_CLK_MAIN_PLL_C1)
  103174:	e55b300e 	ldrb	r3, [fp, #-14]
  103178:	e353000e 	cmp	r3, #14
  10317c:	1a000007 	bne	1031a0 <alt_clk_source_set+0x200>
        {
            alt_clrbits_word(ALT_CLKMGR_MAINPLL_L4SRC_ADDR, ALT_CLKMGR_MAINPLL_L4SRC_L4MP_SET_MSK);
  103180:	e3043070 	movw	r3, #16496	; 0x4070
  103184:	e34f3fd0 	movt	r3, #65488	; 0xffd0
  103188:	e3042070 	movw	r2, #16496	; 0x4070
  10318c:	e34f2fd0 	movt	r2, #65488	; 0xffd0
  103190:	e5922000 	ldr	r2, [r2]
  103194:	e3c22001 	bic	r2, r2, #1
  103198:	e5832000 	str	r2, [r3]
  10319c:	ea0000b5 	b	103478 <alt_clk_source_set+0x4d8>
        }
        else if (ref_clk == ALT_CLK_PERIPHERAL_PLL_C4)
  1031a0:	e55b300e 	ldrb	r3, [fp, #-14]
  1031a4:	e3530029 	cmp	r3, #41	; 0x29
  1031a8:	1a000007 	bne	1031cc <alt_clk_source_set+0x22c>
        {
            alt_setbits_word(ALT_CLKMGR_MAINPLL_L4SRC_ADDR, ALT_CLKMGR_MAINPLL_L4SRC_L4MP_SET_MSK);
  1031ac:	e3043070 	movw	r3, #16496	; 0x4070
  1031b0:	e34f3fd0 	movt	r3, #65488	; 0xffd0
  1031b4:	e3042070 	movw	r2, #16496	; 0x4070
  1031b8:	e34f2fd0 	movt	r2, #65488	; 0xffd0
  1031bc:	e5922000 	ldr	r2, [r2]
  1031c0:	e3822001 	orr	r2, r2, #1
  1031c4:	e5832000 	str	r2, [r3]
  1031c8:	ea0000aa 	b	103478 <alt_clk_source_set+0x4d8>
        }
        else
        {
            status = ALT_E_INV_OPTION;
  1031cc:	e3e0300a 	mvn	r3, #10
  1031d0:	e50b3008 	str	r3, [fp, #-8]
  1031d4:	ea0000a7 	b	103478 <alt_clk_source_set+0x4d8>
        }
    }
    else if ( ALT_CLK_L4_SP == clk)
  1031d8:	e55b300d 	ldrb	r3, [fp, #-13]
  1031dc:	e353001b 	cmp	r3, #27
  1031e0:	1a000018 	bne	103248 <alt_clk_source_set+0x2a8>
    {
        if (ref_clk == ALT_CLK_MAIN_PLL_C1)
  1031e4:	e55b300e 	ldrb	r3, [fp, #-14]
  1031e8:	e353000e 	cmp	r3, #14
  1031ec:	1a000007 	bne	103210 <alt_clk_source_set+0x270>
        {
            alt_clrbits_word(ALT_CLKMGR_MAINPLL_L4SRC_ADDR, ALT_CLKMGR_MAINPLL_L4SRC_L4SP_SET_MSK);
  1031f0:	e3043070 	movw	r3, #16496	; 0x4070
  1031f4:	e34f3fd0 	movt	r3, #65488	; 0xffd0
  1031f8:	e3042070 	movw	r2, #16496	; 0x4070
  1031fc:	e34f2fd0 	movt	r2, #65488	; 0xffd0
  103200:	e5922000 	ldr	r2, [r2]
  103204:	e3c22002 	bic	r2, r2, #2
  103208:	e5832000 	str	r2, [r3]
  10320c:	ea000099 	b	103478 <alt_clk_source_set+0x4d8>
        }
        else if (ref_clk == ALT_CLK_PERIPHERAL_PLL_C4)
  103210:	e55b300e 	ldrb	r3, [fp, #-14]
  103214:	e3530029 	cmp	r3, #41	; 0x29
  103218:	1a000007 	bne	10323c <alt_clk_source_set+0x29c>
        {
            alt_setbits_word(ALT_CLKMGR_MAINPLL_L4SRC_ADDR, ALT_CLKMGR_MAINPLL_L4SRC_L4SP_SET_MSK);
  10321c:	e3043070 	movw	r3, #16496	; 0x4070
  103220:	e34f3fd0 	movt	r3, #65488	; 0xffd0
  103224:	e3042070 	movw	r2, #16496	; 0x4070
  103228:	e34f2fd0 	movt	r2, #65488	; 0xffd0
  10322c:	e5922000 	ldr	r2, [r2]
  103230:	e3822002 	orr	r2, r2, #2
  103234:	e5832000 	str	r2, [r3]
  103238:	ea00008e 	b	103478 <alt_clk_source_set+0x4d8>
        }
        else
        {
            status = ALT_E_INV_OPTION;
  10323c:	e3e0300a 	mvn	r3, #10
  103240:	e50b3008 	str	r3, [fp, #-8]
  103244:	ea00008b 	b	103478 <alt_clk_source_set+0x4d8>
        }
    }
    else if (ALT_CLK_SDMMC == clk)
  103248:	e55b300d 	ldrb	r3, [fp, #-13]
  10324c:	e3530030 	cmp	r3, #48	; 0x30
  103250:	1a00002a 	bne	103300 <alt_clk_source_set+0x360>
    {
        temp  = alt_read_word(ALT_CLKMGR_PERPLL_SRC_ADDR);
  103254:	e30430ac 	movw	r3, #16556	; 0x40ac
  103258:	e34f3fd0 	movt	r3, #65488	; 0xffd0
  10325c:	e5933000 	ldr	r3, [r3]
  103260:	e50b300c 	str	r3, [fp, #-12]
        temp &= ALT_CLKMGR_PERPLL_SRC_SDMMC_CLR_MSK;
  103264:	e51b300c 	ldr	r3, [fp, #-12]
  103268:	e3c33003 	bic	r3, r3, #3
  10326c:	e50b300c 	str	r3, [fp, #-12]

        if (ref_clk == ALT_CLK_F2H_PERIPH_REF)
  103270:	e55b300e 	ldrb	r3, [fp, #-14]
  103274:	e3530002 	cmp	r3, #2
  103278:	1a000004 	bne	103290 <alt_clk_source_set+0x2f0>
        {
            temp |= ALT_CLKMGR_PERPLL_SRC_SDMMC_SET(ALT_CLKMGR_PERPLL_SRC_SDMMC_E_F2S_PERIPH_REF_CLK);
            alt_write_word(ALT_CLKMGR_PERPLL_SRC_ADDR, temp);
  10327c:	e30430ac 	movw	r3, #16556	; 0x40ac
  103280:	e34f3fd0 	movt	r3, #65488	; 0xffd0
  103284:	e51b200c 	ldr	r2, [fp, #-12]
  103288:	e5832000 	str	r2, [r3]
  10328c:	ea000079 	b	103478 <alt_clk_source_set+0x4d8>
        }
        else if ((ref_clk == ALT_CLK_MAIN_PLL_C4) || (ref_clk == ALT_CLK_MAIN_NAND_SDMMC))
  103290:	e55b300e 	ldrb	r3, [fp, #-14]
  103294:	e3530011 	cmp	r3, #17
  103298:	0a000002 	beq	1032a8 <alt_clk_source_set+0x308>
  10329c:	e55b300e 	ldrb	r3, [fp, #-14]
  1032a0:	e3530022 	cmp	r3, #34	; 0x22
  1032a4:	1a000007 	bne	1032c8 <alt_clk_source_set+0x328>
        {
            temp |= ALT_CLKMGR_PERPLL_SRC_SDMMC_SET(ALT_CLKMGR_PERPLL_SRC_SDMMC_E_MAIN_NAND_CLK);
  1032a8:	e51b300c 	ldr	r3, [fp, #-12]
  1032ac:	e3833001 	orr	r3, r3, #1
  1032b0:	e50b300c 	str	r3, [fp, #-12]
            alt_write_word(ALT_CLKMGR_PERPLL_SRC_ADDR, temp);
  1032b4:	e30430ac 	movw	r3, #16556	; 0x40ac
  1032b8:	e34f3fd0 	movt	r3, #65488	; 0xffd0
  1032bc:	e51b200c 	ldr	r2, [fp, #-12]
  1032c0:	e5832000 	str	r2, [r3]
  1032c4:	ea00006b 	b	103478 <alt_clk_source_set+0x4d8>
        }
        else if (ref_clk == ALT_CLK_PERIPHERAL_PLL_C3)
  1032c8:	e55b300e 	ldrb	r3, [fp, #-14]
  1032cc:	e3530028 	cmp	r3, #40	; 0x28
  1032d0:	1a000007 	bne	1032f4 <alt_clk_source_set+0x354>
        {
            temp |= ALT_CLKMGR_PERPLL_SRC_SDMMC_SET(ALT_CLKMGR_PERPLL_SRC_SDMMC_E_PERIPH_NAND_CLK);
  1032d4:	e51b300c 	ldr	r3, [fp, #-12]
  1032d8:	e3833002 	orr	r3, r3, #2
  1032dc:	e50b300c 	str	r3, [fp, #-12]
            alt_write_word(ALT_CLKMGR_PERPLL_SRC_ADDR, temp);
  1032e0:	e30430ac 	movw	r3, #16556	; 0x40ac
  1032e4:	e34f3fd0 	movt	r3, #65488	; 0xffd0
  1032e8:	e51b200c 	ldr	r2, [fp, #-12]
  1032ec:	e5832000 	str	r2, [r3]
  1032f0:	ea000060 	b	103478 <alt_clk_source_set+0x4d8>
        }
        else
        {
            status = ALT_E_INV_OPTION;
  1032f4:	e3e0300a 	mvn	r3, #10
  1032f8:	e50b3008 	str	r3, [fp, #-8]
  1032fc:	ea00005d 	b	103478 <alt_clk_source_set+0x4d8>
        }
    }
    else if ((ALT_CLK_NAND_X == clk) || ( ALT_CLK_NAND == clk))
  103300:	e55b300d 	ldrb	r3, [fp, #-13]
  103304:	e353002e 	cmp	r3, #46	; 0x2e
  103308:	0a000002 	beq	103318 <alt_clk_source_set+0x378>
  10330c:	e55b300d 	ldrb	r3, [fp, #-13]
  103310:	e353002f 	cmp	r3, #47	; 0x2f
  103314:	1a00002a 	bne	1033c4 <alt_clk_source_set+0x424>
    {
        temp = alt_read_word(ALT_CLKMGR_PERPLL_SRC_ADDR);
  103318:	e30430ac 	movw	r3, #16556	; 0x40ac
  10331c:	e34f3fd0 	movt	r3, #65488	; 0xffd0
  103320:	e5933000 	ldr	r3, [r3]
  103324:	e50b300c 	str	r3, [fp, #-12]
        temp &= ALT_CLKMGR_PERPLL_SRC_NAND_CLR_MSK;
  103328:	e51b300c 	ldr	r3, [fp, #-12]
  10332c:	e3c3300c 	bic	r3, r3, #12
  103330:	e50b300c 	str	r3, [fp, #-12]

        if (ref_clk == ALT_CLK_F2H_PERIPH_REF)
  103334:	e55b300e 	ldrb	r3, [fp, #-14]
  103338:	e3530002 	cmp	r3, #2
  10333c:	1a000004 	bne	103354 <alt_clk_source_set+0x3b4>
        {
            temp |= ALT_CLKMGR_PERPLL_SRC_NAND_SET(ALT_CLKMGR_PERPLL_SRC_NAND_E_F2S_PERIPH_REF_CLK);
            alt_write_word(ALT_CLKMGR_PERPLL_SRC_ADDR, temp);
  103340:	e30430ac 	movw	r3, #16556	; 0x40ac
  103344:	e34f3fd0 	movt	r3, #65488	; 0xffd0
  103348:	e51b200c 	ldr	r2, [fp, #-12]
  10334c:	e5832000 	str	r2, [r3]
    else if ((ALT_CLK_NAND_X == clk) || ( ALT_CLK_NAND == clk))
    {
        temp = alt_read_word(ALT_CLKMGR_PERPLL_SRC_ADDR);
        temp &= ALT_CLKMGR_PERPLL_SRC_NAND_CLR_MSK;

        if (ref_clk == ALT_CLK_F2H_PERIPH_REF)
  103350:	ea000048 	b	103478 <alt_clk_source_set+0x4d8>
        {
            temp |= ALT_CLKMGR_PERPLL_SRC_NAND_SET(ALT_CLKMGR_PERPLL_SRC_NAND_E_F2S_PERIPH_REF_CLK);
            alt_write_word(ALT_CLKMGR_PERPLL_SRC_ADDR, temp);
        }
        else if ((ref_clk == ALT_CLK_MAIN_PLL_C4) || (ref_clk == ALT_CLK_MAIN_NAND_SDMMC))
  103354:	e55b300e 	ldrb	r3, [fp, #-14]
  103358:	e3530011 	cmp	r3, #17
  10335c:	0a000002 	beq	10336c <alt_clk_source_set+0x3cc>
  103360:	e55b300e 	ldrb	r3, [fp, #-14]
  103364:	e3530022 	cmp	r3, #34	; 0x22
  103368:	1a000007 	bne	10338c <alt_clk_source_set+0x3ec>
        {
            temp |= ALT_CLKMGR_PERPLL_SRC_NAND_SET(ALT_CLKMGR_PERPLL_SRC_NAND_E_MAIN_NAND_CLK);
  10336c:	e51b300c 	ldr	r3, [fp, #-12]
  103370:	e3833004 	orr	r3, r3, #4
  103374:	e50b300c 	str	r3, [fp, #-12]
            alt_write_word(ALT_CLKMGR_PERPLL_SRC_ADDR, temp);
  103378:	e30430ac 	movw	r3, #16556	; 0x40ac
  10337c:	e34f3fd0 	movt	r3, #65488	; 0xffd0
  103380:	e51b200c 	ldr	r2, [fp, #-12]
  103384:	e5832000 	str	r2, [r3]
    else if ((ALT_CLK_NAND_X == clk) || ( ALT_CLK_NAND == clk))
    {
        temp = alt_read_word(ALT_CLKMGR_PERPLL_SRC_ADDR);
        temp &= ALT_CLKMGR_PERPLL_SRC_NAND_CLR_MSK;

        if (ref_clk == ALT_CLK_F2H_PERIPH_REF)
  103388:	ea00003a 	b	103478 <alt_clk_source_set+0x4d8>
        else if ((ref_clk == ALT_CLK_MAIN_PLL_C4) || (ref_clk == ALT_CLK_MAIN_NAND_SDMMC))
        {
            temp |= ALT_CLKMGR_PERPLL_SRC_NAND_SET(ALT_CLKMGR_PERPLL_SRC_NAND_E_MAIN_NAND_CLK);
            alt_write_word(ALT_CLKMGR_PERPLL_SRC_ADDR, temp);
        }
        else if (ref_clk == ALT_CLK_PERIPHERAL_PLL_C3)
  10338c:	e55b300e 	ldrb	r3, [fp, #-14]
  103390:	e3530028 	cmp	r3, #40	; 0x28
  103394:	1a000007 	bne	1033b8 <alt_clk_source_set+0x418>
        {
            temp |= ALT_CLKMGR_PERPLL_SRC_NAND_SET(ALT_CLKMGR_PERPLL_SRC_NAND_E_PERIPH_NAND_CLK);
  103398:	e51b300c 	ldr	r3, [fp, #-12]
  10339c:	e3833008 	orr	r3, r3, #8
  1033a0:	e50b300c 	str	r3, [fp, #-12]
            alt_write_word(ALT_CLKMGR_PERPLL_SRC_ADDR, temp);
  1033a4:	e30430ac 	movw	r3, #16556	; 0x40ac
  1033a8:	e34f3fd0 	movt	r3, #65488	; 0xffd0
  1033ac:	e51b200c 	ldr	r2, [fp, #-12]
  1033b0:	e5832000 	str	r2, [r3]
    else if ((ALT_CLK_NAND_X == clk) || ( ALT_CLK_NAND == clk))
    {
        temp = alt_read_word(ALT_CLKMGR_PERPLL_SRC_ADDR);
        temp &= ALT_CLKMGR_PERPLL_SRC_NAND_CLR_MSK;

        if (ref_clk == ALT_CLK_F2H_PERIPH_REF)
  1033b4:	ea00002f 	b	103478 <alt_clk_source_set+0x4d8>
            temp |= ALT_CLKMGR_PERPLL_SRC_NAND_SET(ALT_CLKMGR_PERPLL_SRC_NAND_E_PERIPH_NAND_CLK);
            alt_write_word(ALT_CLKMGR_PERPLL_SRC_ADDR, temp);
        }
        else
        {
            status = ALT_E_INV_OPTION;
  1033b8:	e3e0300a 	mvn	r3, #10
  1033bc:	e50b3008 	str	r3, [fp, #-8]
    else if ((ALT_CLK_NAND_X == clk) || ( ALT_CLK_NAND == clk))
    {
        temp = alt_read_word(ALT_CLKMGR_PERPLL_SRC_ADDR);
        temp &= ALT_CLKMGR_PERPLL_SRC_NAND_CLR_MSK;

        if (ref_clk == ALT_CLK_F2H_PERIPH_REF)
  1033c0:	ea00002c 	b	103478 <alt_clk_source_set+0x4d8>
        else
        {
            status = ALT_E_INV_OPTION;
        }
    }
    else if (ALT_CLK_QSPI == clk)
  1033c4:	e55b300d 	ldrb	r3, [fp, #-13]
  1033c8:	e353002d 	cmp	r3, #45	; 0x2d
  1033cc:	1a000029 	bne	103478 <alt_clk_source_set+0x4d8>
    {
        temp  = alt_read_word(ALT_CLKMGR_PERPLL_SRC_ADDR);
  1033d0:	e30430ac 	movw	r3, #16556	; 0x40ac
  1033d4:	e34f3fd0 	movt	r3, #65488	; 0xffd0
  1033d8:	e5933000 	ldr	r3, [r3]
  1033dc:	e50b300c 	str	r3, [fp, #-12]
        temp &= ALT_CLKMGR_PERPLL_SRC_QSPI_CLR_MSK;
  1033e0:	e51b300c 	ldr	r3, [fp, #-12]
  1033e4:	e3c33030 	bic	r3, r3, #48	; 0x30
  1033e8:	e50b300c 	str	r3, [fp, #-12]

        if (ref_clk == ALT_CLK_F2H_PERIPH_REF)
  1033ec:	e55b300e 	ldrb	r3, [fp, #-14]
  1033f0:	e3530002 	cmp	r3, #2
  1033f4:	1a000004 	bne	10340c <alt_clk_source_set+0x46c>
        {
            temp |= ALT_CLKMGR_PERPLL_SRC_QSPI_SET(ALT_CLKMGR_PERPLL_SRC_QSPI_E_F2S_PERIPH_REF_CLK);
            alt_write_word(ALT_CLKMGR_PERPLL_SRC_ADDR, temp);
  1033f8:	e30430ac 	movw	r3, #16556	; 0x40ac
  1033fc:	e34f3fd0 	movt	r3, #65488	; 0xffd0
  103400:	e51b200c 	ldr	r2, [fp, #-12]
  103404:	e5832000 	str	r2, [r3]
  103408:	ea00001a 	b	103478 <alt_clk_source_set+0x4d8>
        }
        else if ((ref_clk == ALT_CLK_MAIN_PLL_C3) || (ref_clk == ALT_CLK_MAIN_QSPI))
  10340c:	e55b300e 	ldrb	r3, [fp, #-14]
  103410:	e3530010 	cmp	r3, #16
  103414:	0a000002 	beq	103424 <alt_clk_source_set+0x484>
  103418:	e55b300e 	ldrb	r3, [fp, #-14]
  10341c:	e3530021 	cmp	r3, #33	; 0x21
  103420:	1a000007 	bne	103444 <alt_clk_source_set+0x4a4>
        {
            temp |= ALT_CLKMGR_PERPLL_SRC_QSPI_SET(ALT_CLKMGR_PERPLL_SRC_QSPI_E_MAIN_QSPI_CLK);
  103424:	e51b300c 	ldr	r3, [fp, #-12]
  103428:	e3833010 	orr	r3, r3, #16
  10342c:	e50b300c 	str	r3, [fp, #-12]
            alt_write_word(ALT_CLKMGR_PERPLL_SRC_ADDR, temp);
  103430:	e30430ac 	movw	r3, #16556	; 0x40ac
  103434:	e34f3fd0 	movt	r3, #65488	; 0xffd0
  103438:	e51b200c 	ldr	r2, [fp, #-12]
  10343c:	e5832000 	str	r2, [r3]
  103440:	ea00000c 	b	103478 <alt_clk_source_set+0x4d8>
        }
        else if (ref_clk == ALT_CLK_PERIPHERAL_PLL_C2)
  103444:	e55b300e 	ldrb	r3, [fp, #-14]
  103448:	e3530027 	cmp	r3, #39	; 0x27
  10344c:	1a000007 	bne	103470 <alt_clk_source_set+0x4d0>
        {
            temp |= ALT_CLKMGR_PERPLL_SRC_QSPI_SET(ALT_CLKMGR_PERPLL_SRC_QSPI_E_PERIPH_QSPI_CLK);
  103450:	e51b300c 	ldr	r3, [fp, #-12]
  103454:	e3833020 	orr	r3, r3, #32
  103458:	e50b300c 	str	r3, [fp, #-12]
            alt_write_word(ALT_CLKMGR_PERPLL_SRC_ADDR, temp);
  10345c:	e30430ac 	movw	r3, #16556	; 0x40ac
  103460:	e34f3fd0 	movt	r3, #65488	; 0xffd0
  103464:	e51b200c 	ldr	r2, [fp, #-12]
  103468:	e5832000 	str	r2, [r3]
  10346c:	ea000001 	b	103478 <alt_clk_source_set+0x4d8>
        }
        else
        {
            status = ALT_E_INV_OPTION;
  103470:	e3e0300a 	mvn	r3, #10
  103474:	e50b3008 	str	r3, [fp, #-8]
        }
    }

    return status;
  103478:	e51b3008 	ldr	r3, [fp, #-8]
}
  10347c:	e1a00003 	mov	r0, r3
  103480:	e24bd000 	sub	sp, fp, #0
  103484:	e49db004 	pop	{fp}		; (ldr fp, [sp], #4)
  103488:	e12fff1e 	bx	lr

0010348c <alt_clk_ext_clk_freq_set>:
// a measure of Hz. This value is stored in a static array and used for calculations.
// The supplied frequency should be within the Fmin and Fmax values allowed for the
// external clock source.
*/
ALT_STATUS_CODE alt_clk_ext_clk_freq_set(ALT_CLK_t clk, alt_freq_t freq)
{
  10348c:	e52db004 	push	{fp}		; (str fp, [sp, #-4]!)
  103490:	e28db000 	add	fp, sp, #0
  103494:	e24dd014 	sub	sp, sp, #20
  103498:	e1a03000 	mov	r3, r0
  10349c:	e50b1014 	str	r1, [fp, #-20]	; 0xffffffec
  1034a0:	e54b300d 	strb	r3, [fp, #-13]
    ALT_STATUS_CODE status = ALT_E_BAD_ARG;
  1034a4:	e3e03008 	mvn	r3, #8
  1034a8:	e50b3008 	str	r3, [fp, #-8]

    if ((clk == ALT_CLK_IN_PIN_OSC1) || (clk == ALT_CLK_OSC1))      /* two names for one input */
  1034ac:	e55b300d 	ldrb	r3, [fp, #-13]
  1034b0:	e3530000 	cmp	r3, #0
  1034b4:	0a000002 	beq	1034c4 <alt_clk_ext_clk_freq_set+0x38>
  1034b8:	e55b300d 	ldrb	r3, [fp, #-13]
  1034bc:	e353000c 	cmp	r3, #12
  1034c0:	1a000015 	bne	10351c <alt_clk_ext_clk_freq_set+0x90>
    {
        if ((freq >= alt_ext_clk_paramblok.clkosc1.freqmin) && (freq <= alt_ext_clk_paramblok.clkosc1.freqmax))
  1034c4:	e30732b0 	movw	r3, #29360	; 0x72b0
  1034c8:	e3403011 	movt	r3, #17
  1034cc:	e5932004 	ldr	r2, [r3, #4]
  1034d0:	e51b3014 	ldr	r3, [fp, #-20]	; 0xffffffec
  1034d4:	e1520003 	cmp	r2, r3
  1034d8:	8a00000c 	bhi	103510 <alt_clk_ext_clk_freq_set+0x84>
  1034dc:	e30732b0 	movw	r3, #29360	; 0x72b0
  1034e0:	e3403011 	movt	r3, #17
  1034e4:	e5932008 	ldr	r2, [r3, #8]
  1034e8:	e51b3014 	ldr	r3, [fp, #-20]	; 0xffffffec
  1034ec:	e1520003 	cmp	r2, r3
  1034f0:	3a000006 	bcc	103510 <alt_clk_ext_clk_freq_set+0x84>
        {
            alt_ext_clk_paramblok.clkosc1.freqcur = freq;
  1034f4:	e30732b0 	movw	r3, #29360	; 0x72b0
  1034f8:	e3403011 	movt	r3, #17
  1034fc:	e51b2014 	ldr	r2, [fp, #-20]	; 0xffffffec
  103500:	e5832000 	str	r2, [r3]
            status = ALT_E_SUCCESS;
  103504:	e3a03000 	mov	r3, #0
  103508:	e50b3008 	str	r3, [fp, #-8]
{
    ALT_STATUS_CODE status = ALT_E_BAD_ARG;

    if ((clk == ALT_CLK_IN_PIN_OSC1) || (clk == ALT_CLK_OSC1))      /* two names for one input */
    {
        if ((freq >= alt_ext_clk_paramblok.clkosc1.freqmin) && (freq <= alt_ext_clk_paramblok.clkosc1.freqmax))
  10350c:	ea00004f 	b	103650 <alt_clk_ext_clk_freq_set+0x1c4>
            alt_ext_clk_paramblok.clkosc1.freqcur = freq;
            status = ALT_E_SUCCESS;
        }
        else
        {
            status = ALT_E_ARG_RANGE;
  103510:	e3e03007 	mvn	r3, #7
  103514:	e50b3008 	str	r3, [fp, #-8]
{
    ALT_STATUS_CODE status = ALT_E_BAD_ARG;

    if ((clk == ALT_CLK_IN_PIN_OSC1) || (clk == ALT_CLK_OSC1))      /* two names for one input */
    {
        if ((freq >= alt_ext_clk_paramblok.clkosc1.freqmin) && (freq <= alt_ext_clk_paramblok.clkosc1.freqmax))
  103518:	ea00004c 	b	103650 <alt_clk_ext_clk_freq_set+0x1c4>
        else
        {
            status = ALT_E_ARG_RANGE;
        }
    }
    else if (clk == ALT_CLK_IN_PIN_OSC2)                            /* the other clock input pin */
  10351c:	e55b300d 	ldrb	r3, [fp, #-13]
  103520:	e3530001 	cmp	r3, #1
  103524:	1a000015 	bne	103580 <alt_clk_ext_clk_freq_set+0xf4>
    {
        if ((freq >= alt_ext_clk_paramblok.clkosc2.freqmin) && (freq <= alt_ext_clk_paramblok.clkosc2.freqmax))
  103528:	e30732b0 	movw	r3, #29360	; 0x72b0
  10352c:	e3403011 	movt	r3, #17
  103530:	e5932014 	ldr	r2, [r3, #20]
  103534:	e51b3014 	ldr	r3, [fp, #-20]	; 0xffffffec
  103538:	e1520003 	cmp	r2, r3
  10353c:	8a00000c 	bhi	103574 <alt_clk_ext_clk_freq_set+0xe8>
  103540:	e30732b0 	movw	r3, #29360	; 0x72b0
  103544:	e3403011 	movt	r3, #17
  103548:	e5932018 	ldr	r2, [r3, #24]
  10354c:	e51b3014 	ldr	r3, [fp, #-20]	; 0xffffffec
  103550:	e1520003 	cmp	r2, r3
  103554:	3a000006 	bcc	103574 <alt_clk_ext_clk_freq_set+0xe8>
        {
            alt_ext_clk_paramblok.clkosc2.freqcur = freq;
  103558:	e30732b0 	movw	r3, #29360	; 0x72b0
  10355c:	e3403011 	movt	r3, #17
  103560:	e51b2014 	ldr	r2, [fp, #-20]	; 0xffffffec
  103564:	e5832010 	str	r2, [r3, #16]
            status = ALT_E_SUCCESS;
  103568:	e3a03000 	mov	r3, #0
  10356c:	e50b3008 	str	r3, [fp, #-8]
  103570:	ea000036 	b	103650 <alt_clk_ext_clk_freq_set+0x1c4>
        }
        else
        {
            status = ALT_E_ARG_RANGE;
  103574:	e3e03007 	mvn	r3, #7
  103578:	e50b3008 	str	r3, [fp, #-8]
  10357c:	ea000033 	b	103650 <alt_clk_ext_clk_freq_set+0x1c4>
        }
    }
    else if (clk == ALT_CLK_F2H_PERIPH_REF)                         /* clock from the FPGA */
  103580:	e55b300d 	ldrb	r3, [fp, #-13]
  103584:	e3530002 	cmp	r3, #2
  103588:	1a000015 	bne	1035e4 <alt_clk_ext_clk_freq_set+0x158>
    {
        if ((freq >= alt_ext_clk_paramblok.periph.freqmin) && (freq <= alt_ext_clk_paramblok.periph.freqmax))
  10358c:	e30732b0 	movw	r3, #29360	; 0x72b0
  103590:	e3403011 	movt	r3, #17
  103594:	e5932024 	ldr	r2, [r3, #36]	; 0x24
  103598:	e51b3014 	ldr	r3, [fp, #-20]	; 0xffffffec
  10359c:	e1520003 	cmp	r2, r3
  1035a0:	8a00000c 	bhi	1035d8 <alt_clk_ext_clk_freq_set+0x14c>
  1035a4:	e30732b0 	movw	r3, #29360	; 0x72b0
  1035a8:	e3403011 	movt	r3, #17
  1035ac:	e5932028 	ldr	r2, [r3, #40]	; 0x28
  1035b0:	e51b3014 	ldr	r3, [fp, #-20]	; 0xffffffec
  1035b4:	e1520003 	cmp	r2, r3
  1035b8:	3a000006 	bcc	1035d8 <alt_clk_ext_clk_freq_set+0x14c>
        {
            alt_ext_clk_paramblok.periph.freqcur = freq;
  1035bc:	e30732b0 	movw	r3, #29360	; 0x72b0
  1035c0:	e3403011 	movt	r3, #17
  1035c4:	e51b2014 	ldr	r2, [fp, #-20]	; 0xffffffec
  1035c8:	e5832020 	str	r2, [r3, #32]
            status = ALT_E_SUCCESS;
  1035cc:	e3a03000 	mov	r3, #0
  1035d0:	e50b3008 	str	r3, [fp, #-8]
  1035d4:	ea00001d 	b	103650 <alt_clk_ext_clk_freq_set+0x1c4>
        }
        else
        {
            status = ALT_E_ARG_RANGE;
  1035d8:	e3e03007 	mvn	r3, #7
  1035dc:	e50b3008 	str	r3, [fp, #-8]
  1035e0:	ea00001a 	b	103650 <alt_clk_ext_clk_freq_set+0x1c4>
        }
    }
    else if (clk == ALT_CLK_F2H_SDRAM_REF)                          /* clock from the FPGA SDRAM */
  1035e4:	e55b300d 	ldrb	r3, [fp, #-13]
  1035e8:	e3530003 	cmp	r3, #3
  1035ec:	1a000015 	bne	103648 <alt_clk_ext_clk_freq_set+0x1bc>
    {
        if ((freq >= alt_ext_clk_paramblok.sdram.freqmin) && (freq <= alt_ext_clk_paramblok.sdram.freqmax))
  1035f0:	e30732b0 	movw	r3, #29360	; 0x72b0
  1035f4:	e3403011 	movt	r3, #17
  1035f8:	e5932034 	ldr	r2, [r3, #52]	; 0x34
  1035fc:	e51b3014 	ldr	r3, [fp, #-20]	; 0xffffffec
  103600:	e1520003 	cmp	r2, r3
  103604:	8a00000c 	bhi	10363c <alt_clk_ext_clk_freq_set+0x1b0>
  103608:	e30732b0 	movw	r3, #29360	; 0x72b0
  10360c:	e3403011 	movt	r3, #17
  103610:	e5932038 	ldr	r2, [r3, #56]	; 0x38
  103614:	e51b3014 	ldr	r3, [fp, #-20]	; 0xffffffec
  103618:	e1520003 	cmp	r2, r3
  10361c:	3a000006 	bcc	10363c <alt_clk_ext_clk_freq_set+0x1b0>
        {
            alt_ext_clk_paramblok.sdram.freqcur = freq;
  103620:	e30732b0 	movw	r3, #29360	; 0x72b0
  103624:	e3403011 	movt	r3, #17
  103628:	e51b2014 	ldr	r2, [fp, #-20]	; 0xffffffec
  10362c:	e5832030 	str	r2, [r3, #48]	; 0x30
            status = ALT_E_SUCCESS;
  103630:	e3a03000 	mov	r3, #0
  103634:	e50b3008 	str	r3, [fp, #-8]
  103638:	ea000004 	b	103650 <alt_clk_ext_clk_freq_set+0x1c4>
        }
        else
        {
            status = ALT_E_ARG_RANGE;
  10363c:	e3e03007 	mvn	r3, #7
  103640:	e50b3008 	str	r3, [fp, #-8]
  103644:	ea000001 	b	103650 <alt_clk_ext_clk_freq_set+0x1c4>
        }
    }
    else
    {
        status = ALT_E_BAD_ARG;
  103648:	e3e03008 	mvn	r3, #8
  10364c:	e50b3008 	str	r3, [fp, #-8]
    }

    return status;
  103650:	e51b3008 	ldr	r3, [fp, #-8]
}
  103654:	e1a00003 	mov	r0, r3
  103658:	e24bd000 	sub	sp, fp, #0
  10365c:	e49db004 	pop	{fp}		; (ldr fp, [sp], #4)
  103660:	e12fff1e 	bx	lr

00103664 <alt_clk_ext_clk_freq_get>:
/*
// alt_clk_ext_clk_freq_get returns the frequency of the external clock source as
// a measure of Hz. This value is stored in a static array.
*/
alt_freq_t alt_clk_ext_clk_freq_get(ALT_CLK_t clk)
{
  103664:	e52db004 	push	{fp}		; (str fp, [sp, #-4]!)
  103668:	e28db000 	add	fp, sp, #0
  10366c:	e24dd014 	sub	sp, sp, #20
  103670:	e1a03000 	mov	r3, r0
  103674:	e54b300d 	strb	r3, [fp, #-13]
    uint32_t ret = 0;
  103678:	e3a03000 	mov	r3, #0
  10367c:	e50b3008 	str	r3, [fp, #-8]

    if ((clk == ALT_CLK_IN_PIN_OSC1) || (clk == ALT_CLK_OSC1))      /* two names for one input */
  103680:	e55b300d 	ldrb	r3, [fp, #-13]
  103684:	e3530000 	cmp	r3, #0
  103688:	0a000002 	beq	103698 <alt_clk_ext_clk_freq_get+0x34>
  10368c:	e55b300d 	ldrb	r3, [fp, #-13]
  103690:	e353000c 	cmp	r3, #12
  103694:	1a000004 	bne	1036ac <alt_clk_ext_clk_freq_get+0x48>
    {
        ret = alt_ext_clk_paramblok.clkosc1.freqcur;
  103698:	e30732b0 	movw	r3, #29360	; 0x72b0
  10369c:	e3403011 	movt	r3, #17
  1036a0:	e5933000 	ldr	r3, [r3]
  1036a4:	e50b3008 	str	r3, [fp, #-8]
  1036a8:	ea000016 	b	103708 <alt_clk_ext_clk_freq_get+0xa4>
    }
    else if (clk == ALT_CLK_IN_PIN_OSC2)
  1036ac:	e55b300d 	ldrb	r3, [fp, #-13]
  1036b0:	e3530001 	cmp	r3, #1
  1036b4:	1a000004 	bne	1036cc <alt_clk_ext_clk_freq_get+0x68>
    {
        ret = alt_ext_clk_paramblok.clkosc2.freqcur;
  1036b8:	e30732b0 	movw	r3, #29360	; 0x72b0
  1036bc:	e3403011 	movt	r3, #17
  1036c0:	e5933010 	ldr	r3, [r3, #16]
  1036c4:	e50b3008 	str	r3, [fp, #-8]
  1036c8:	ea00000e 	b	103708 <alt_clk_ext_clk_freq_get+0xa4>
    }
    else if (clk == ALT_CLK_F2H_PERIPH_REF)                         /* clock from the FPGA */
  1036cc:	e55b300d 	ldrb	r3, [fp, #-13]
  1036d0:	e3530002 	cmp	r3, #2
  1036d4:	1a000004 	bne	1036ec <alt_clk_ext_clk_freq_get+0x88>
    {
        ret = alt_ext_clk_paramblok.periph.freqcur;
  1036d8:	e30732b0 	movw	r3, #29360	; 0x72b0
  1036dc:	e3403011 	movt	r3, #17
  1036e0:	e5933020 	ldr	r3, [r3, #32]
  1036e4:	e50b3008 	str	r3, [fp, #-8]
  1036e8:	ea000006 	b	103708 <alt_clk_ext_clk_freq_get+0xa4>
    }
    else if (clk == ALT_CLK_F2H_SDRAM_REF)                         /* clock from the FPGA */
  1036ec:	e55b300d 	ldrb	r3, [fp, #-13]
  1036f0:	e3530003 	cmp	r3, #3
  1036f4:	1a000003 	bne	103708 <alt_clk_ext_clk_freq_get+0xa4>
    {
        ret = alt_ext_clk_paramblok.sdram.freqcur;
  1036f8:	e30732b0 	movw	r3, #29360	; 0x72b0
  1036fc:	e3403011 	movt	r3, #17
  103700:	e5933030 	ldr	r3, [r3, #48]	; 0x30
  103704:	e50b3008 	str	r3, [fp, #-8]
    }
    return ret;
  103708:	e51b3008 	ldr	r3, [fp, #-8]
}
  10370c:	e1a00003 	mov	r0, r3
  103710:	e24bd000 	sub	sp, fp, #0
  103714:	e49db004 	pop	{fp}		; (ldr fp, [sp], #4)
  103718:	e12fff1e 	bx	lr

0010371c <alt_clk_pll_cfg_get>:

/*
// alt_clk_pll_cfg_get() returns the current PLL configuration.
*/
ALT_STATUS_CODE alt_clk_pll_cfg_get(ALT_CLK_t pll, ALT_CLK_PLL_CFG_t * pll_cfg)
{
  10371c:	e52db004 	push	{fp}		; (str fp, [sp, #-4]!)
  103720:	e28db000 	add	fp, sp, #0
  103724:	e24dd014 	sub	sp, sp, #20
  103728:	e1a03000 	mov	r3, r0
  10372c:	e50b1014 	str	r1, [fp, #-20]	; 0xffffffec
  103730:	e54b300d 	strb	r3, [fp, #-13]
    ALT_STATUS_CODE        ret = ALT_E_ERROR;                  /* return value */
  103734:	e3e03000 	mvn	r3, #0
  103738:	e50b3008 	str	r3, [fp, #-8]
    uint32_t               temp;                               /* temp variable */
 
    if (pll_cfg == NULL)
  10373c:	e51b3014 	ldr	r3, [fp, #-20]	; 0xffffffec
  103740:	e3530000 	cmp	r3, #0
  103744:	1a000003 	bne	103758 <alt_clk_pll_cfg_get+0x3c>
    {
        ret = ALT_E_BAD_ARG;
  103748:	e3e03008 	mvn	r3, #8
  10374c:	e50b3008 	str	r3, [fp, #-8]
        return ret;
  103750:	e51b3008 	ldr	r3, [fp, #-8]
  103754:	ea00013c 	b	103c4c <alt_clk_pll_cfg_get+0x530>
    }

    if (pll == ALT_CLK_MAIN_PLL)
  103758:	e55b300d 	ldrb	r3, [fp, #-13]
  10375c:	e3530009 	cmp	r3, #9
  103760:	1a00004f 	bne	1038a4 <alt_clk_pll_cfg_get+0x188>
    {
        temp = alt_read_word(ALT_CLKMGR_MAINPLL_VCO_ADDR);
  103764:	e3043040 	movw	r3, #16448	; 0x4040
  103768:	e34f3fd0 	movt	r3, #65488	; 0xffd0
  10376c:	e5933000 	ldr	r3, [r3]
  103770:	e50b300c 	str	r3, [fp, #-12]
        pll_cfg->ref_clk = ALT_CLK_IN_PIN_OSC1;
  103774:	e51b3014 	ldr	r3, [fp, #-20]	; 0xffffffec
  103778:	e3a02000 	mov	r2, #0
  10377c:	e5c32000 	strb	r2, [r3]
        pll_cfg->mult = ALT_CLKMGR_MAINPLL_VCO_NUMER_GET(temp);
  103780:	e51b200c 	ldr	r2, [fp, #-12]
  103784:	e30f3ff8 	movw	r3, #65528	; 0xfff8
  103788:	e0033002 	and	r3, r3, r2
  10378c:	e1a021a3 	lsr	r2, r3, #3
  103790:	e51b3014 	ldr	r3, [fp, #-20]	; 0xffffffec
  103794:	e5832004 	str	r2, [r3, #4]
        pll_cfg->div = ALT_CLKMGR_MAINPLL_VCO_DENOM_GET(temp);
  103798:	e51b300c 	ldr	r3, [fp, #-12]
  10379c:	e203383f 	and	r3, r3, #4128768	; 0x3f0000
  1037a0:	e1a02823 	lsr	r2, r3, #16
  1037a4:	e51b3014 	ldr	r3, [fp, #-20]	; 0xffffffec
  1037a8:	e5832008 	str	r2, [r3, #8]

        /* Get the C0-C5 divider values: */
        pll_cfg->cntrs[0] = ALT_CLKMGR_MAINPLL_MPUCLK_CNT_GET(alt_read_word(ALT_CLKMGR_MISC_MPUCLK_ADDR));
  1037ac:	e30430e0 	movw	r3, #16608	; 0x40e0
  1037b0:	e34f3fd0 	movt	r3, #65488	; 0xffd0
  1037b4:	e5933000 	ldr	r3, [r3]
  1037b8:	e7e82053 	ubfx	r2, r3, #0, #9
  1037bc:	e51b3014 	ldr	r3, [fp, #-20]	; 0xffffffec
  1037c0:	e583200c 	str	r2, [r3, #12]
        /* C0 - mpu_clk */

        pll_cfg->cntrs[1] = ALT_CLKMGR_MAINPLL_MAINCLK_CNT_GET(alt_read_word(ALT_CLKMGR_MISC_MAINCLK_ADDR));
  1037c4:	e30430e4 	movw	r3, #16612	; 0x40e4
  1037c8:	e34f3fd0 	movt	r3, #65488	; 0xffd0
  1037cc:	e5933000 	ldr	r3, [r3]
  1037d0:	e7e82053 	ubfx	r2, r3, #0, #9
  1037d4:	e51b3014 	ldr	r3, [fp, #-20]	; 0xffffffec
  1037d8:	e5832010 	str	r2, [r3, #16]
        /* C1 - main_clk */

        pll_cfg->cntrs[2] = ALT_CLKMGR_MAINPLL_DBGATCLK_CNT_GET(alt_read_word(ALT_CLKMGR_MAINPLL_DBGATCLK_ADDR));
  1037dc:	e3043050 	movw	r3, #16464	; 0x4050
  1037e0:	e34f3fd0 	movt	r3, #65488	; 0xffd0
  1037e4:	e5933000 	ldr	r3, [r3]
  1037e8:	e7e82053 	ubfx	r2, r3, #0, #9
  1037ec:	e51b3014 	ldr	r3, [fp, #-20]	; 0xffffffec
  1037f0:	e5832014 	str	r2, [r3, #20]
        /* C2 - dbg_base_clk */

        pll_cfg->cntrs[3] = ALT_CLKMGR_MAINPLL_MAINQSPICLK_CNT_GET(alt_read_word(ALT_CLKMGR_MAINPLL_MAINQSPICLK_ADDR));
  1037f4:	e3043054 	movw	r3, #16468	; 0x4054
  1037f8:	e34f3fd0 	movt	r3, #65488	; 0xffd0
  1037fc:	e5933000 	ldr	r3, [r3]
  103800:	e7e82053 	ubfx	r2, r3, #0, #9
  103804:	e51b3014 	ldr	r3, [fp, #-20]	; 0xffffffec
  103808:	e5832018 	str	r2, [r3, #24]
        /* C3 - main_qspi_clk */

        pll_cfg->cntrs[4] = ALT_CLKMGR_MAINPLL_MAINNANDSDMMCCLK_CNT_GET(alt_read_word(ALT_CLKMGR_MAINPLL_MAINNANDSDMMCCLK_ADDR));
  10380c:	e3043058 	movw	r3, #16472	; 0x4058
  103810:	e34f3fd0 	movt	r3, #65488	; 0xffd0
  103814:	e5933000 	ldr	r3, [r3]
  103818:	e7e82053 	ubfx	r2, r3, #0, #9
  10381c:	e51b3014 	ldr	r3, [fp, #-20]	; 0xffffffec
  103820:	e583201c 	str	r2, [r3, #28]
        /* C4 - main_nand_sdmmc_clk */

        pll_cfg->cntrs[5] = ALT_CLKMGR_MAINPLL_CFGS2FUSER0CLK_CNT_GET(alt_read_word(ALT_CLKMGR_MAINPLL_CFGS2FUSER0CLK_ADDR));
  103824:	e304305c 	movw	r3, #16476	; 0x405c
  103828:	e34f3fd0 	movt	r3, #65488	; 0xffd0
  10382c:	e5933000 	ldr	r3, [r3]
  103830:	e7e82053 	ubfx	r2, r3, #0, #9
  103834:	e51b3014 	ldr	r3, [fp, #-20]	; 0xffffffec
  103838:	e5832020 	str	r2, [r3, #32]
        /* C5 - cfg_s2f_user0_clk aka cfg_h2f_user0_clk */

        /* The Main PLL C0-C5 outputs have no phase shift capabilities : */
        pll_cfg->pshift[0] = pll_cfg->pshift[1] = pll_cfg->pshift[2] =
            pll_cfg->pshift[3] = pll_cfg->pshift[4] = pll_cfg->pshift[5] = 0;
  10383c:	e51b3014 	ldr	r3, [fp, #-20]	; 0xffffffec
  103840:	e3a02000 	mov	r2, #0
  103844:	e5832038 	str	r2, [r3, #56]	; 0x38
  103848:	e51b3014 	ldr	r3, [fp, #-20]	; 0xffffffec
  10384c:	e5932038 	ldr	r2, [r3, #56]	; 0x38
  103850:	e51b3014 	ldr	r3, [fp, #-20]	; 0xffffffec
  103854:	e5832034 	str	r2, [r3, #52]	; 0x34
  103858:	e51b3014 	ldr	r3, [fp, #-20]	; 0xffffffec
  10385c:	e5932034 	ldr	r2, [r3, #52]	; 0x34
  103860:	e51b3014 	ldr	r3, [fp, #-20]	; 0xffffffec
  103864:	e5832030 	str	r2, [r3, #48]	; 0x30
  103868:	e51b3014 	ldr	r3, [fp, #-20]	; 0xffffffec
  10386c:	e5932030 	ldr	r2, [r3, #48]	; 0x30

        pll_cfg->cntrs[5] = ALT_CLKMGR_MAINPLL_CFGS2FUSER0CLK_CNT_GET(alt_read_word(ALT_CLKMGR_MAINPLL_CFGS2FUSER0CLK_ADDR));
        /* C5 - cfg_s2f_user0_clk aka cfg_h2f_user0_clk */

        /* The Main PLL C0-C5 outputs have no phase shift capabilities : */
        pll_cfg->pshift[0] = pll_cfg->pshift[1] = pll_cfg->pshift[2] =
  103870:	e51b3014 	ldr	r3, [fp, #-20]	; 0xffffffec
  103874:	e583202c 	str	r2, [r3, #44]	; 0x2c
  103878:	e51b3014 	ldr	r3, [fp, #-20]	; 0xffffffec
  10387c:	e593202c 	ldr	r2, [r3, #44]	; 0x2c
  103880:	e51b3014 	ldr	r3, [fp, #-20]	; 0xffffffec
  103884:	e5832028 	str	r2, [r3, #40]	; 0x28
  103888:	e51b3014 	ldr	r3, [fp, #-20]	; 0xffffffec
  10388c:	e5932028 	ldr	r2, [r3, #40]	; 0x28
  103890:	e51b3014 	ldr	r3, [fp, #-20]	; 0xffffffec
  103894:	e5832024 	str	r2, [r3, #36]	; 0x24
            pll_cfg->pshift[3] = pll_cfg->pshift[4] = pll_cfg->pshift[5] = 0;
        ret = ALT_E_SUCCESS;
  103898:	e3a03000 	mov	r3, #0
  10389c:	e50b3008 	str	r3, [fp, #-8]
  1038a0:	ea0000e8 	b	103c48 <alt_clk_pll_cfg_get+0x52c>
    }
    else if (pll == ALT_CLK_PERIPHERAL_PLL)
  1038a4:	e55b300d 	ldrb	r3, [fp, #-13]
  1038a8:	e353000a 	cmp	r3, #10
  1038ac:	1a000069 	bne	103a58 <alt_clk_pll_cfg_get+0x33c>
    {
        temp = ALT_CLKMGR_PERPLL_VCO_PSRC_GET(alt_read_word(ALT_CLKMGR_PERPLL_VCO_ADDR));
  1038b0:	e3043080 	movw	r3, #16512	; 0x4080
  1038b4:	e34f3fd0 	movt	r3, #65488	; 0xffd0
  1038b8:	e5933000 	ldr	r3, [r3]
  1038bc:	e2033503 	and	r3, r3, #12582912	; 0xc00000
  1038c0:	e1a03b23 	lsr	r3, r3, #22
  1038c4:	e50b300c 	str	r3, [fp, #-12]
        if (temp <= 2)
  1038c8:	e51b300c 	ldr	r3, [fp, #-12]
  1038cc:	e3530002 	cmp	r3, #2
  1038d0:	8a0000dc 	bhi	103c48 <alt_clk_pll_cfg_get+0x52c>
        {
            if (temp == ALT_CLKMGR_PERPLL_VCO_PSRC_E_EOSC1)
  1038d4:	e51b300c 	ldr	r3, [fp, #-12]
  1038d8:	e3530000 	cmp	r3, #0
  1038dc:	1a000003 	bne	1038f0 <alt_clk_pll_cfg_get+0x1d4>
            {
                pll_cfg->ref_clk = ALT_CLK_IN_PIN_OSC1;
  1038e0:	e51b3014 	ldr	r3, [fp, #-20]	; 0xffffffec
  1038e4:	e3a02000 	mov	r2, #0
  1038e8:	e5c32000 	strb	r2, [r3]
  1038ec:	ea00000c 	b	103924 <alt_clk_pll_cfg_get+0x208>
            }
            else if (temp == ALT_CLKMGR_PERPLL_VCO_PSRC_E_EOSC2)
  1038f0:	e51b300c 	ldr	r3, [fp, #-12]
  1038f4:	e3530001 	cmp	r3, #1
  1038f8:	1a000003 	bne	10390c <alt_clk_pll_cfg_get+0x1f0>
            {
                pll_cfg->ref_clk = ALT_CLK_IN_PIN_OSC2;
  1038fc:	e51b3014 	ldr	r3, [fp, #-20]	; 0xffffffec
  103900:	e3a02001 	mov	r2, #1
  103904:	e5c32000 	strb	r2, [r3]
  103908:	ea000005 	b	103924 <alt_clk_pll_cfg_get+0x208>
            }
            else if (temp == ALT_CLKMGR_PERPLL_VCO_PSRC_E_F2S_PERIPH_REF)
  10390c:	e51b300c 	ldr	r3, [fp, #-12]
  103910:	e3530002 	cmp	r3, #2
  103914:	1a000002 	bne	103924 <alt_clk_pll_cfg_get+0x208>
            {
                pll_cfg->ref_clk = ALT_CLK_F2H_PERIPH_REF;
  103918:	e51b3014 	ldr	r3, [fp, #-20]	; 0xffffffec
  10391c:	e3a02002 	mov	r2, #2
  103920:	e5c32000 	strb	r2, [r3]
            }

            temp = alt_read_word(ALT_CLKMGR_PERPLL_VCO_ADDR);
  103924:	e3043080 	movw	r3, #16512	; 0x4080
  103928:	e34f3fd0 	movt	r3, #65488	; 0xffd0
  10392c:	e5933000 	ldr	r3, [r3]
  103930:	e50b300c 	str	r3, [fp, #-12]
            pll_cfg->mult = ALT_CLKMGR_PERPLL_VCO_NUMER_GET(temp);
  103934:	e51b200c 	ldr	r2, [fp, #-12]
  103938:	e30f3ff8 	movw	r3, #65528	; 0xfff8
  10393c:	e0033002 	and	r3, r3, r2
  103940:	e1a021a3 	lsr	r2, r3, #3
  103944:	e51b3014 	ldr	r3, [fp, #-20]	; 0xffffffec
  103948:	e5832004 	str	r2, [r3, #4]
            pll_cfg->div = ALT_CLKMGR_PERPLL_VCO_DENOM_GET(temp);
  10394c:	e51b300c 	ldr	r3, [fp, #-12]
  103950:	e203383f 	and	r3, r3, #4128768	; 0x3f0000
  103954:	e1a02823 	lsr	r2, r3, #16
  103958:	e51b3014 	ldr	r3, [fp, #-20]	; 0xffffffec
  10395c:	e5832008 	str	r2, [r3, #8]

            /* Get the C0-C5 divider values: */
            pll_cfg->cntrs[0] = ALT_CLKMGR_PERPLL_EMAC0CLK_CNT_GET(alt_read_word(ALT_CLKMGR_PERPLL_EMAC0CLK_ADDR));
  103960:	e3043088 	movw	r3, #16520	; 0x4088
  103964:	e34f3fd0 	movt	r3, #65488	; 0xffd0
  103968:	e5933000 	ldr	r3, [r3]
  10396c:	e7e82053 	ubfx	r2, r3, #0, #9
  103970:	e51b3014 	ldr	r3, [fp, #-20]	; 0xffffffec
  103974:	e583200c 	str	r2, [r3, #12]
            /* C0 - emac0_clk */

            pll_cfg->cntrs[1] = ALT_CLKMGR_PERPLL_EMAC1CLK_CNT_GET(alt_read_word(ALT_CLKMGR_PERPLL_EMAC1CLK_ADDR));
  103978:	e304308c 	movw	r3, #16524	; 0x408c
  10397c:	e34f3fd0 	movt	r3, #65488	; 0xffd0
  103980:	e5933000 	ldr	r3, [r3]
  103984:	e7e82053 	ubfx	r2, r3, #0, #9
  103988:	e51b3014 	ldr	r3, [fp, #-20]	; 0xffffffec
  10398c:	e5832010 	str	r2, [r3, #16]
            /* C1 - emac1_clk */

            pll_cfg->cntrs[2] = ALT_CLKMGR_PERPLL_PERQSPICLK_CNT_GET(alt_read_word(ALT_CLKMGR_PERPLL_PERQSPICLK_ADDR));
  103990:	e3043090 	movw	r3, #16528	; 0x4090
  103994:	e34f3fd0 	movt	r3, #65488	; 0xffd0
  103998:	e5933000 	ldr	r3, [r3]
  10399c:	e7e82053 	ubfx	r2, r3, #0, #9
  1039a0:	e51b3014 	ldr	r3, [fp, #-20]	; 0xffffffec
  1039a4:	e5832014 	str	r2, [r3, #20]
            /* C2 - periph_qspi_clk */

            pll_cfg->cntrs[3] = ALT_CLKMGR_PERPLL_PERNANDSDMMCCLK_CNT_GET(alt_read_word(ALT_CLKMGR_PERPLL_PERNANDSDMMCCLK_ADDR));
  1039a8:	e3043094 	movw	r3, #16532	; 0x4094
  1039ac:	e34f3fd0 	movt	r3, #65488	; 0xffd0
  1039b0:	e5933000 	ldr	r3, [r3]
  1039b4:	e7e82053 	ubfx	r2, r3, #0, #9
  1039b8:	e51b3014 	ldr	r3, [fp, #-20]	; 0xffffffec
  1039bc:	e5832018 	str	r2, [r3, #24]
            /* C3 - periph_nand_sdmmc_clk */

            pll_cfg->cntrs[4] = ALT_CLKMGR_PERPLL_PERBASECLK_CNT_GET(alt_read_word(ALT_CLKMGR_PERPLL_PERBASECLK_ADDR));
  1039c0:	e3043098 	movw	r3, #16536	; 0x4098
  1039c4:	e34f3fd0 	movt	r3, #65488	; 0xffd0
  1039c8:	e5933000 	ldr	r3, [r3]
  1039cc:	e7e82053 	ubfx	r2, r3, #0, #9
  1039d0:	e51b3014 	ldr	r3, [fp, #-20]	; 0xffffffec
  1039d4:	e583201c 	str	r2, [r3, #28]
            /* C4 - periph_base_clk */

            pll_cfg->cntrs[5] = ALT_CLKMGR_PERPLL_S2FUSER1CLK_CNT_GET(alt_read_word(ALT_CLKMGR_PERPLL_S2FUSER1CLK_ADDR));
  1039d8:	e304309c 	movw	r3, #16540	; 0x409c
  1039dc:	e34f3fd0 	movt	r3, #65488	; 0xffd0
  1039e0:	e5933000 	ldr	r3, [r3]
  1039e4:	e7e82053 	ubfx	r2, r3, #0, #9
  1039e8:	e51b3014 	ldr	r3, [fp, #-20]	; 0xffffffec
  1039ec:	e5832020 	str	r2, [r3, #32]
            /* C5 - s2f_user1_clk */

            /* The Peripheral PLL C0-C5 outputs have no phase shift capabilities : */
            pll_cfg->pshift[0] = pll_cfg->pshift[1] = pll_cfg->pshift[2] =
                pll_cfg->pshift[3] = pll_cfg->pshift[4] = pll_cfg->pshift[5] = 0;
  1039f0:	e51b3014 	ldr	r3, [fp, #-20]	; 0xffffffec
  1039f4:	e3a02000 	mov	r2, #0
  1039f8:	e5832038 	str	r2, [r3, #56]	; 0x38
  1039fc:	e51b3014 	ldr	r3, [fp, #-20]	; 0xffffffec
  103a00:	e5932038 	ldr	r2, [r3, #56]	; 0x38
  103a04:	e51b3014 	ldr	r3, [fp, #-20]	; 0xffffffec
  103a08:	e5832034 	str	r2, [r3, #52]	; 0x34
  103a0c:	e51b3014 	ldr	r3, [fp, #-20]	; 0xffffffec
  103a10:	e5932034 	ldr	r2, [r3, #52]	; 0x34
  103a14:	e51b3014 	ldr	r3, [fp, #-20]	; 0xffffffec
  103a18:	e5832030 	str	r2, [r3, #48]	; 0x30
  103a1c:	e51b3014 	ldr	r3, [fp, #-20]	; 0xffffffec
  103a20:	e5932030 	ldr	r2, [r3, #48]	; 0x30

            pll_cfg->cntrs[5] = ALT_CLKMGR_PERPLL_S2FUSER1CLK_CNT_GET(alt_read_word(ALT_CLKMGR_PERPLL_S2FUSER1CLK_ADDR));
            /* C5 - s2f_user1_clk */

            /* The Peripheral PLL C0-C5 outputs have no phase shift capabilities : */
            pll_cfg->pshift[0] = pll_cfg->pshift[1] = pll_cfg->pshift[2] =
  103a24:	e51b3014 	ldr	r3, [fp, #-20]	; 0xffffffec
  103a28:	e583202c 	str	r2, [r3, #44]	; 0x2c
  103a2c:	e51b3014 	ldr	r3, [fp, #-20]	; 0xffffffec
  103a30:	e593202c 	ldr	r2, [r3, #44]	; 0x2c
  103a34:	e51b3014 	ldr	r3, [fp, #-20]	; 0xffffffec
  103a38:	e5832028 	str	r2, [r3, #40]	; 0x28
  103a3c:	e51b3014 	ldr	r3, [fp, #-20]	; 0xffffffec
  103a40:	e5932028 	ldr	r2, [r3, #40]	; 0x28
  103a44:	e51b3014 	ldr	r3, [fp, #-20]	; 0xffffffec
  103a48:	e5832024 	str	r2, [r3, #36]	; 0x24
                pll_cfg->pshift[3] = pll_cfg->pshift[4] = pll_cfg->pshift[5] = 0;
            ret = ALT_E_SUCCESS;
  103a4c:	e3a03000 	mov	r3, #0
  103a50:	e50b3008 	str	r3, [fp, #-8]
  103a54:	ea00007b 	b	103c48 <alt_clk_pll_cfg_get+0x52c>
        }
    }
    else if (pll == ALT_CLK_SDRAM_PLL)
  103a58:	e55b300d 	ldrb	r3, [fp, #-13]
  103a5c:	e353000b 	cmp	r3, #11
  103a60:	1a000078 	bne	103c48 <alt_clk_pll_cfg_get+0x52c>
    {
        temp = ALT_CLKMGR_SDRPLL_VCO_SSRC_GET(alt_read_word(ALT_CLKMGR_SDRPLL_VCO_ADDR));
  103a64:	e30430c0 	movw	r3, #16576	; 0x40c0
  103a68:	e34f3fd0 	movt	r3, #65488	; 0xffd0
  103a6c:	e5933000 	ldr	r3, [r3]
  103a70:	e2033503 	and	r3, r3, #12582912	; 0xc00000
  103a74:	e1a03b23 	lsr	r3, r3, #22
  103a78:	e50b300c 	str	r3, [fp, #-12]
        if (temp <= 2)
  103a7c:	e51b300c 	ldr	r3, [fp, #-12]
  103a80:	e3530002 	cmp	r3, #2
  103a84:	8a00006f 	bhi	103c48 <alt_clk_pll_cfg_get+0x52c>
        {
            if (temp == ALT_CLKMGR_SDRPLL_VCO_SSRC_E_EOSC1)
  103a88:	e51b300c 	ldr	r3, [fp, #-12]
  103a8c:	e3530000 	cmp	r3, #0
  103a90:	1a000003 	bne	103aa4 <alt_clk_pll_cfg_get+0x388>
            {
                pll_cfg->ref_clk = ALT_CLK_IN_PIN_OSC1;
  103a94:	e51b3014 	ldr	r3, [fp, #-20]	; 0xffffffec
  103a98:	e3a02000 	mov	r2, #0
  103a9c:	e5c32000 	strb	r2, [r3]
  103aa0:	ea00000c 	b	103ad8 <alt_clk_pll_cfg_get+0x3bc>
            }
            else if (temp == ALT_CLKMGR_SDRPLL_VCO_SSRC_E_EOSC2)
  103aa4:	e51b300c 	ldr	r3, [fp, #-12]
  103aa8:	e3530001 	cmp	r3, #1
  103aac:	1a000003 	bne	103ac0 <alt_clk_pll_cfg_get+0x3a4>
            {
                pll_cfg->ref_clk = ALT_CLK_IN_PIN_OSC2;
  103ab0:	e51b3014 	ldr	r3, [fp, #-20]	; 0xffffffec
  103ab4:	e3a02001 	mov	r2, #1
  103ab8:	e5c32000 	strb	r2, [r3]
  103abc:	ea000005 	b	103ad8 <alt_clk_pll_cfg_get+0x3bc>
            }
            else if (temp == ALT_CLKMGR_SDRPLL_VCO_SSRC_E_F2S_SDRAM_REF)
  103ac0:	e51b300c 	ldr	r3, [fp, #-12]
  103ac4:	e3530002 	cmp	r3, #2
  103ac8:	1a000002 	bne	103ad8 <alt_clk_pll_cfg_get+0x3bc>
            {
                pll_cfg->ref_clk = ALT_CLK_F2H_SDRAM_REF;
  103acc:	e51b3014 	ldr	r3, [fp, #-20]	; 0xffffffec
  103ad0:	e3a02003 	mov	r2, #3
  103ad4:	e5c32000 	strb	r2, [r3]
            }

            pll_cfg->mult = ALT_CLKMGR_SDRPLL_VCO_NUMER_GET(alt_read_word(ALT_CLKMGR_SDRPLL_VCO_ADDR));
  103ad8:	e30430c0 	movw	r3, #16576	; 0x40c0
  103adc:	e34f3fd0 	movt	r3, #65488	; 0xffd0
  103ae0:	e5932000 	ldr	r2, [r3]
  103ae4:	e30f3ff8 	movw	r3, #65528	; 0xfff8
  103ae8:	e0033002 	and	r3, r3, r2
  103aec:	e1a021a3 	lsr	r2, r3, #3
  103af0:	e51b3014 	ldr	r3, [fp, #-20]	; 0xffffffec
  103af4:	e5832004 	str	r2, [r3, #4]
            pll_cfg->div = ALT_CLKMGR_SDRPLL_VCO_DENOM_GET(alt_read_word(ALT_CLKMGR_SDRPLL_VCO_ADDR));
  103af8:	e30430c0 	movw	r3, #16576	; 0x40c0
  103afc:	e34f3fd0 	movt	r3, #65488	; 0xffd0
  103b00:	e5933000 	ldr	r3, [r3]
  103b04:	e203383f 	and	r3, r3, #4128768	; 0x3f0000
  103b08:	e1a02823 	lsr	r2, r3, #16
  103b0c:	e51b3014 	ldr	r3, [fp, #-20]	; 0xffffffec
  103b10:	e5832008 	str	r2, [r3, #8]

            /* Get the C0-C5 divider values: */
            pll_cfg->cntrs[0]  = ALT_CLKMGR_SDRPLL_DDRDQSCLK_CNT_GET(alt_read_word(ALT_CLKMGR_SDRPLL_DDRDQSCLK_ADDR));
  103b14:	e30430c8 	movw	r3, #16584	; 0x40c8
  103b18:	e34f3fd0 	movt	r3, #65488	; 0xffd0
  103b1c:	e5933000 	ldr	r3, [r3]
  103b20:	e7e82053 	ubfx	r2, r3, #0, #9
  103b24:	e51b3014 	ldr	r3, [fp, #-20]	; 0xffffffec
  103b28:	e583200c 	str	r2, [r3, #12]
            pll_cfg->pshift[0] = ALT_CLKMGR_SDRPLL_DDRDQSCLK_PHASE_GET(alt_read_word(ALT_CLKMGR_SDRPLL_DDRDQSCLK_ADDR));
  103b2c:	e30430c8 	movw	r3, #16584	; 0x40c8
  103b30:	e34f3fd0 	movt	r3, #65488	; 0xffd0
  103b34:	e5932000 	ldr	r2, [r3]
  103b38:	e3a03cfe 	mov	r3, #65024	; 0xfe00
  103b3c:	e340301f 	movt	r3, #31
  103b40:	e0033002 	and	r3, r3, r2
  103b44:	e1a024a3 	lsr	r2, r3, #9
  103b48:	e51b3014 	ldr	r3, [fp, #-20]	; 0xffffffec
  103b4c:	e5832024 	str	r2, [r3, #36]	; 0x24
            /* C0  - ddr_dqs_clk */

            pll_cfg->cntrs[1]  = ALT_CLKMGR_SDRPLL_DDR2XDQSCLK_CNT_GET(alt_read_word(ALT_CLKMGR_SDRPLL_DDR2XDQSCLK_ADDR));
  103b50:	e30430cc 	movw	r3, #16588	; 0x40cc
  103b54:	e34f3fd0 	movt	r3, #65488	; 0xffd0
  103b58:	e5933000 	ldr	r3, [r3]
  103b5c:	e7e82053 	ubfx	r2, r3, #0, #9
  103b60:	e51b3014 	ldr	r3, [fp, #-20]	; 0xffffffec
  103b64:	e5832010 	str	r2, [r3, #16]
            pll_cfg->pshift[1] = ALT_CLKMGR_SDRPLL_DDR2XDQSCLK_PHASE_GET(alt_read_word(ALT_CLKMGR_SDRPLL_DDR2XDQSCLK_ADDR));
  103b68:	e30430cc 	movw	r3, #16588	; 0x40cc
  103b6c:	e34f3fd0 	movt	r3, #65488	; 0xffd0
  103b70:	e5932000 	ldr	r2, [r3]
  103b74:	e3a03cfe 	mov	r3, #65024	; 0xfe00
  103b78:	e340301f 	movt	r3, #31
  103b7c:	e0033002 	and	r3, r3, r2
  103b80:	e1a024a3 	lsr	r2, r3, #9
  103b84:	e51b3014 	ldr	r3, [fp, #-20]	; 0xffffffec
  103b88:	e5832028 	str	r2, [r3, #40]	; 0x28
            /* C1  - ddr_2x_dqs_clk */

            pll_cfg->cntrs[2]  = ALT_CLKMGR_SDRPLL_DDRDQCLK_CNT_GET(alt_read_word(ALT_CLKMGR_SDRPLL_DDRDQCLK_ADDR));
  103b8c:	e30430d0 	movw	r3, #16592	; 0x40d0
  103b90:	e34f3fd0 	movt	r3, #65488	; 0xffd0
  103b94:	e5933000 	ldr	r3, [r3]
  103b98:	e7e82053 	ubfx	r2, r3, #0, #9
  103b9c:	e51b3014 	ldr	r3, [fp, #-20]	; 0xffffffec
  103ba0:	e5832014 	str	r2, [r3, #20]
            pll_cfg->pshift[2] = ALT_CLKMGR_SDRPLL_DDRDQCLK_PHASE_GET(alt_read_word(ALT_CLKMGR_SDRPLL_DDRDQCLK_ADDR));
  103ba4:	e30430d0 	movw	r3, #16592	; 0x40d0
  103ba8:	e34f3fd0 	movt	r3, #65488	; 0xffd0
  103bac:	e5932000 	ldr	r2, [r3]
  103bb0:	e3a03cfe 	mov	r3, #65024	; 0xfe00
  103bb4:	e340301f 	movt	r3, #31
  103bb8:	e0033002 	and	r3, r3, r2
  103bbc:	e1a024a3 	lsr	r2, r3, #9
  103bc0:	e51b3014 	ldr	r3, [fp, #-20]	; 0xffffffec
  103bc4:	e583202c 	str	r2, [r3, #44]	; 0x2c
            /* C2  - ddr_dq_clk */

            pll_cfg->cntrs[3]  = pll_cfg->cntrs[4] = pll_cfg->pshift[3] = pll_cfg->pshift[4] = 0;
  103bc8:	e51b3014 	ldr	r3, [fp, #-20]	; 0xffffffec
  103bcc:	e3a02000 	mov	r2, #0
  103bd0:	e5832034 	str	r2, [r3, #52]	; 0x34
  103bd4:	e51b3014 	ldr	r3, [fp, #-20]	; 0xffffffec
  103bd8:	e5932034 	ldr	r2, [r3, #52]	; 0x34
  103bdc:	e51b3014 	ldr	r3, [fp, #-20]	; 0xffffffec
  103be0:	e5832030 	str	r2, [r3, #48]	; 0x30
  103be4:	e51b3014 	ldr	r3, [fp, #-20]	; 0xffffffec
  103be8:	e5932030 	ldr	r2, [r3, #48]	; 0x30
  103bec:	e51b3014 	ldr	r3, [fp, #-20]	; 0xffffffec
  103bf0:	e583201c 	str	r2, [r3, #28]
  103bf4:	e51b3014 	ldr	r3, [fp, #-20]	; 0xffffffec
  103bf8:	e593201c 	ldr	r2, [r3, #28]
  103bfc:	e51b3014 	ldr	r3, [fp, #-20]	; 0xffffffec
  103c00:	e5832018 	str	r2, [r3, #24]
            /* C3  & C4 outputs don't exist on the SDRAM PLL */

            pll_cfg->cntrs[5]  = ALT_CLKMGR_SDRPLL_S2FUSER2CLK_CNT_GET(alt_read_word(ALT_CLKMGR_SDRPLL_S2FUSER2CLK_ADDR));
  103c04:	e30430d4 	movw	r3, #16596	; 0x40d4
  103c08:	e34f3fd0 	movt	r3, #65488	; 0xffd0
  103c0c:	e5933000 	ldr	r3, [r3]
  103c10:	e7e82053 	ubfx	r2, r3, #0, #9
  103c14:	e51b3014 	ldr	r3, [fp, #-20]	; 0xffffffec
  103c18:	e5832020 	str	r2, [r3, #32]
            pll_cfg->pshift[5] = ALT_CLKMGR_SDRPLL_S2FUSER2CLK_PHASE_GET(alt_read_word(ALT_CLKMGR_SDRPLL_S2FUSER2CLK_ADDR));
  103c1c:	e30430d4 	movw	r3, #16596	; 0x40d4
  103c20:	e34f3fd0 	movt	r3, #65488	; 0xffd0
  103c24:	e5932000 	ldr	r2, [r3]
  103c28:	e3a03cfe 	mov	r3, #65024	; 0xfe00
  103c2c:	e340301f 	movt	r3, #31
  103c30:	e0033002 	and	r3, r3, r2
  103c34:	e1a024a3 	lsr	r2, r3, #9
  103c38:	e51b3014 	ldr	r3, [fp, #-20]	; 0xffffffec
  103c3c:	e5832038 	str	r2, [r3, #56]	; 0x38
            /* C5  - s2f_user2_clk or h2f_user2_clk */

            ret = ALT_E_SUCCESS;
  103c40:	e3a03000 	mov	r3, #0
  103c44:	e50b3008 	str	r3, [fp, #-8]
        }
    }

    return ret;
  103c48:	e51b3008 	ldr	r3, [fp, #-8]
}
  103c4c:	e1a00003 	mov	r0, r3
  103c50:	e24bd000 	sub	sp, fp, #0
  103c54:	e49db004 	pop	{fp}		; (ldr fp, [sp], #4)
  103c58:	e12fff1e 	bx	lr

00103c5c <alt_clk_pll_cfg_set>:
/*
// alt_clk_pll_cfg_set() sets the PLL configuration using the configuration parameters
// specified in pll_cfg.
*/
ALT_STATUS_CODE alt_clk_pll_cfg_set(ALT_CLK_t pll, const ALT_CLK_PLL_CFG_t * pll_cfg)
{
  103c5c:	e92d4800 	push	{fp, lr}
  103c60:	e28db004 	add	fp, sp, #4
  103c64:	e24dd018 	sub	sp, sp, #24
  103c68:	e1a03000 	mov	r3, r0
  103c6c:	e50b1014 	str	r1, [fp, #-20]	; 0xffffffec
  103c70:	e54b300d 	strb	r3, [fp, #-13]
    ALT_STATUS_CODE ret = ALT_E_ERROR;
  103c74:	e3e03000 	mvn	r3, #0
  103c78:	e50b3008 	str	r3, [fp, #-8]
    uint32_t        temp;

    if (pll_cfg == NULL)
  103c7c:	e51b3014 	ldr	r3, [fp, #-20]	; 0xffffffec
  103c80:	e3530000 	cmp	r3, #0
  103c84:	1a000001 	bne	103c90 <alt_clk_pll_cfg_set+0x34>
    {
        return ALT_E_BAD_ARG;
  103c88:	e3e03008 	mvn	r3, #8
  103c8c:	ea000146 	b	1041ac <alt_clk_pll_cfg_set+0x550>
    }

    if (alt_clk_pll_is_bypassed(pll) != ALT_E_TRUE)         /* safe to write the PLL registers? */
  103c90:	e55b300d 	ldrb	r3, [fp, #-13]
  103c94:	e1a00003 	mov	r0, r3
  103c98:	ebfff67f 	bl	10169c <alt_clk_pll_is_bypassed>
  103c9c:	e1a03000 	mov	r3, r0
  103ca0:	e3530001 	cmp	r3, #1
  103ca4:	0a000001 	beq	103cb0 <alt_clk_pll_cfg_set+0x54>
    {
        return ALT_E_ERROR;
  103ca8:	e3e03000 	mvn	r3, #0
  103cac:	ea00013e 	b	1041ac <alt_clk_pll_cfg_set+0x550>
    }

    if (pll == ALT_CLK_MAIN_PLL)
  103cb0:	e55b300d 	ldrb	r3, [fp, #-13]
  103cb4:	e3530009 	cmp	r3, #9
  103cb8:	1a000037 	bne	103d9c <alt_clk_pll_cfg_set+0x140>
    {
        temp  = (ALT_CLKMGR_MAINPLL_VCO_NUMER_CLR_MSK & ALT_CLKMGR_MAINPLL_VCO_DENOM_CLR_MSK)
            & alt_read_word(ALT_CLKMGR_MAINPLL_VCO_ADDR);
  103cbc:	e3043040 	movw	r3, #16448	; 0x4040
  103cc0:	e34f3fd0 	movt	r3, #65488	; 0xffd0
  103cc4:	e5932000 	ldr	r2, [r3]
        return ALT_E_ERROR;
    }

    if (pll == ALT_CLK_MAIN_PLL)
    {
        temp  = (ALT_CLKMGR_MAINPLL_VCO_NUMER_CLR_MSK & ALT_CLKMGR_MAINPLL_VCO_DENOM_CLR_MSK)
  103cc8:	e3a03007 	mov	r3, #7
  103ccc:	e34f3fc0 	movt	r3, #65472	; 0xffc0
  103cd0:	e0033002 	and	r3, r3, r2
  103cd4:	e50b300c 	str	r3, [fp, #-12]
            & alt_read_word(ALT_CLKMGR_MAINPLL_VCO_ADDR);
        temp |= ALT_CLKMGR_MAINPLL_VCO_NUMER_SET(pll_cfg->mult) |
  103cd8:	e51b3014 	ldr	r3, [fp, #-20]	; 0xffffffec
  103cdc:	e5933004 	ldr	r3, [r3, #4]
  103ce0:	e1a03183 	lsl	r3, r3, #3
  103ce4:	e6ff2073 	uxth	r2, r3
            ALT_CLKMGR_MAINPLL_VCO_DENOM_SET(pll_cfg->div);
  103ce8:	e51b3014 	ldr	r3, [fp, #-20]	; 0xffffffec
